
Discarded input sections

 .data          0x0000000000000000        0x0 arch/arm/cpu/armv8/start.o
 .bss           0x0000000000000000        0x0 arch/arm/cpu/armv8/start.o
 .text          0x0000000000000000        0x0 arch/arm/mach-rockchip/built-in.o
 .text.rockchip_get_boot_mode
                0x0000000000000000      0x1e8 arch/arm/mach-rockchip/built-in.o
 .text.param_parse_ddr_mem
                0x0000000000000000      0x170 arch/arm/mach-rockchip/built-in.o
 .text.param_parse_pre_serial
                0x0000000000000000       0x9c arch/arm/mach-rockchip/built-in.o
 .text.param_parse_pubkey_fuse_programmed
                0x0000000000000000       0x58 arch/arm/mach-rockchip/built-in.o
 .text.rockchip_sdram_size
                0x0000000000000000      0x1a8 arch/arm/mach-rockchip/built-in.o
 .text.get_page_size
                0x0000000000000000       0x20 arch/arm/mach-rockchip/built-in.o
 .text.get_ddr_bw
                0x0000000000000000       0x20 arch/arm/mach-rockchip/built-in.o
 .text.dram_init_banksize
                0x0000000000000000       0x18 arch/arm/mach-rockchip/built-in.o
 .text.dram_init
                0x0000000000000000       0x34 arch/arm/mach-rockchip/built-in.o
 .text.board_get_usable_ram_top
                0x0000000000000000       0x18 arch/arm/mach-rockchip/built-in.o
 .text.rockchip_setup_ddr_param
                0x0000000000000000       0x4c arch/arm/mach-rockchip/built-in.o
 .text.fdt_rm_path
                0x0000000000000000       0x28 arch/arm/mach-rockchip/built-in.o
 .text.rk_board_fdt_fixup
                0x0000000000000000      0x4d8 arch/arm/mach-rockchip/built-in.o
 .text.set_armclk_rate
                0x0000000000000000       0xe4 arch/arm/mach-rockchip/built-in.o
 .text.rockchip_get_clk
                0x0000000000000000       0x14 arch/arm/mach-rockchip/built-in.o
 .text.rockchip_get_cru
                0x0000000000000000       0x30 arch/arm/mach-rockchip/built-in.o
 .text.back_to_bootrom
                0x0000000000000000       0x2c arch/arm/mach-rockchip/built-in.o
 .text.board_return_to_bootrom
                0x0000000000000000        0x8 arch/arm/mach-rockchip/built-in.o
 .text.atags_is_available
                0x0000000000000000       0x1c arch/arm/mach-rockchip/built-in.o
 .text.get_bootdev_by_brom_bootsource
                0x0000000000000000       0x30 arch/arm/mach-rockchip/built-in.o
 .text.atags_set_bootdev_by_brom_bootsource
                0x0000000000000000       0x38 arch/arm/mach-rockchip/built-in.o
 .text.get_bootdev_by_spl_bootdevice
                0x0000000000000000       0x20 arch/arm/mach-rockchip/built-in.o
 .text.atags_set_pub_key
                0x0000000000000000       0x78 arch/arm/mach-rockchip/built-in.o
 .text.atags_destroy
                0x0000000000000000       0x28 arch/arm/mach-rockchip/built-in.o
 .text.puts_to_ram
                0x0000000000000000       0x30 arch/arm/mach-rockchip/built-in.o
 .rodata        0x0000000000000000       0x80 arch/arm/mach-rockchip/built-in.o
 .rodata.rockchip_get_boot_mode
                0x0000000000000000        0xd arch/arm/mach-rockchip/built-in.o
 .rodata.rockchip_get_boot_mode.str1.1
                0x0000000000000000      0x107 arch/arm/mach-rockchip/built-in.o
 .rodata.param_parse_ddr_mem.str1.1
                0x0000000000000000       0x1a arch/arm/mach-rockchip/built-in.o
 .rodata.param_parse_pubkey_fuse_programmed.str1.1
                0x0000000000000000       0x2d arch/arm/mach-rockchip/built-in.o
 .rodata.get_page_size.str1.1
                0x0000000000000000       0x2b arch/arm/mach-rockchip/built-in.o
 .rodata.__func__.8655
                0x0000000000000000       0x10 arch/arm/mach-rockchip/built-in.o
 .rodata.rk_board_fdt_fixup.str1.1
                0x0000000000000000      0x260 arch/arm/mach-rockchip/built-in.o
 .rodata.set_armclk_rate.str1.1
                0x0000000000000000       0x93 arch/arm/mach-rockchip/built-in.o
 .rodata.back_to_bootrom.str1.1
                0x0000000000000000       0x1a arch/arm/mach-rockchip/built-in.o
 .rodata.bootdev_map
                0x0000000000000000       0x2c arch/arm/mach-rockchip/built-in.o
 .bss           0x0000000000000000        0x0 arch/arm/mach-rockchip/built-in.o
 .text.sdelay   0x0000000000000000        0xc arch/arm/cpu/armv8/built-in.o
 .text.cleanup_before_linux
                0x0000000000000000       0x2c arch/arm/cpu/armv8/built-in.o
 .text.timer_read_counter
                0x0000000000000000        0xc arch/arm/cpu/armv8/built-in.o
 .text.usec2ticks
                0x0000000000000000       0x44 arch/arm/cpu/armv8/built-in.o
 .text.timer_get_boot_us
                0x0000000000000000       0x14 arch/arm/cpu/armv8/built-in.o
 .text.set_one_region
                0x0000000000000000       0xd4 arch/arm/cpu/armv8/built-in.o
 .text.dcache_status
                0x0000000000000000       0x34 arch/arm/cpu/armv8/built-in.o
 .text.arch_get_page_table
                0x0000000000000000       0x20 arch/arm/cpu/armv8/built-in.o
 .text.mmu_set_region_dcache_behaviour
                0x0000000000000000       0xa8 arch/arm/cpu/armv8/built-in.o
 .text.mmu_change_region_attr
                0x0000000000000000       0xe8 arch/arm/cpu/armv8/built-in.o
 .text.icache_status
                0x0000000000000000       0x34 arch/arm/cpu/armv8/built-in.o
 .text.icache_enable
                0x0000000000000000       0x74 arch/arm/cpu/armv8/built-in.o
 .text.enable_caches
                0x0000000000000000       0x14 arch/arm/cpu/armv8/built-in.o
 .text.__asm_switch_ttbr
                0x0000000000000000       0xe0 arch/arm/cpu/armv8/built-in.o
 .text.armv8_switch_to_el2
                0x0000000000000000       0xb8 arch/arm/cpu/armv8/built-in.o
 .text.armv8_switch_to_el1
                0x0000000000000000       0xd0 arch/arm/cpu/armv8/built-in.o
 .text.armv8_el2_to_aarch32
                0x0000000000000000        0x4 arch/arm/cpu/armv8/built-in.o
 .text.smc_call
                0x0000000000000000       0x44 arch/arm/cpu/armv8/built-in.o
 .text.psci_system_reset
                0x0000000000000000       0x20 arch/arm/cpu/armv8/built-in.o
 .text.psci_system_off
                0x0000000000000000       0x20 arch/arm/cpu/armv8/built-in.o
 .text.reset_misc
                0x0000000000000000        0xc arch/arm/cpu/armv8/built-in.o
 .rodata.arch_get_page_table.str1.1
                0x0000000000000000       0x1e arch/arm/cpu/armv8/built-in.o
 .rodata.mmu_set_region_dcache_behaviour.str1.1
                0x0000000000000000       0x20 arch/arm/cpu/armv8/built-in.o
 .rodata.set_one_region.str1.1
                0x0000000000000000       0x2e arch/arm/cpu/armv8/built-in.o
 .eh_frame      0x0000000000000000       0x48 arch/arm/cpu/armv8/built-in.o
 .data          0x0000000000000000        0x0 arch/arm/cpu/armv8/built-in.o
 .bss           0x0000000000000000        0x0 arch/arm/cpu/armv8/built-in.o
 .text.board_fdt_fixup
                0x0000000000000000        0x8 arch/arm/lib/built-in.o
 .text.arch_fixup_fdt
                0x0000000000000000       0x94 arch/arm/lib/built-in.o
 .text.boot_prep_linux
                0x0000000000000000       0x58 arch/arm/lib/built-in.o
 .text.arch_lmb_reserve
                0x0000000000000000       0x14 arch/arm/lib/built-in.o
 .text.board_quiesce_devices
                0x0000000000000000        0x4 arch/arm/lib/built-in.o
 .text.setup_board_tags
                0x0000000000000000        0x4 arch/arm/lib/built-in.o
 .text.armv7_boot_nonsec_default
                0x0000000000000000        0x8 arch/arm/lib/built-in.o
 .text.update_os_arch_secondary_cores
                0x0000000000000000        0x4 arch/arm/lib/built-in.o
 .text.boot_jump_linux
                0x0000000000000000       0xfc arch/arm/lib/built-in.o
 .text.do_bootm_linux
                0x0000000000000000       0x74 arch/arm/lib/built-in.o
 .text.boot_prep_vxworks
                0x0000000000000000       0x50 arch/arm/lib/built-in.o
 .text.boot_jump_vxworks
                0x0000000000000000        0xc arch/arm/lib/built-in.o
 .text.bootz_setup
                0x0000000000000000       0x7c arch/arm/lib/built-in.o
 .text.arch_reserve_stacks
                0x0000000000000000       0x1c arch/arm/lib/built-in.o
 .text.interrupt_init
                0x0000000000000000        0x8 arch/arm/lib/built-in.o
 .text.enable_interrupts
                0x0000000000000000        0x4 arch/arm/lib/built-in.o
 .text.dump_stack
                0x0000000000000000       0x3c arch/arm/lib/built-in.o
 .text.enable_caches
                0x0000000000000000        0xc arch/arm/lib/built-in.o
 .text.invalidate_dcache_range
                0x0000000000000000        0x4 arch/arm/lib/built-in.o
 .text.flush_dcache_range
                0x0000000000000000        0x4 arch/arm/lib/built-in.o
 .text.flush_dcache_all
                0x0000000000000000        0xc arch/arm/lib/built-in.o
 .text.check_cache_range
                0x0000000000000000       0x1c arch/arm/lib/built-in.o
 .text.noncached_init
                0x0000000000000000       0x38 arch/arm/lib/built-in.o
 .text.noncached_alloc
                0x0000000000000000       0x4c arch/arm/lib/built-in.o
 .text.fdt_psci
                0x0000000000000000        0x8 arch/arm/lib/built-in.o
 .rodata.arch_fixup_fdt.str1.1
                0x0000000000000000       0x33 arch/arm/lib/built-in.o
 .rodata.boot_jump_linux.str1.1
                0x0000000000000000       0x44 arch/arm/lib/built-in.o
 .rodata.boot_prep_linux.str1.1
                0x0000000000000000       0x5a arch/arm/lib/built-in.o
 .rodata.boot_prep_vxworks.str1.1
                0x0000000000000000       0x2a arch/arm/lib/built-in.o
 .rodata.enable_caches.str1.1
                0x0000000000000000       0x1d arch/arm/lib/built-in.o
 .data          0x0000000000000000        0x0 arch/arm/lib/built-in.o
 .__efi_runtime_rel_start
                0x0000000000000000        0x0 arch/arm/lib/built-in.o
 .__efi_runtime_rel_stop
                0x0000000000000000        0x0 arch/arm/lib/built-in.o
 .__efi_runtime_start
                0x0000000000000000        0x0 arch/arm/lib/built-in.o
 .__efi_runtime_stop
                0x0000000000000000        0x0 arch/arm/lib/built-in.o
 .__secure_end  0x0000000000000000        0x0 arch/arm/lib/built-in.o
 .__secure_stack_end
                0x0000000000000000        0x0 arch/arm/lib/built-in.o
 .__secure_stack_start
                0x0000000000000000        0x0 arch/arm/lib/built-in.o
 .__secure_start
                0x0000000000000000        0x0 arch/arm/lib/built-in.o
 .bss           0x0000000000000000        0x0 arch/arm/lib/built-in.o
 .bss.noncached_end
                0x0000000000000000        0x8 arch/arm/lib/built-in.o
 .bss.noncached_next
                0x0000000000000000        0x8 arch/arm/lib/built-in.o
 .text          0x0000000000000000        0x0 board/rockchip/evb_rk3588/built-in.o
 .text.usb_gadget_handle_interrupts
                0x0000000000000000       0x1c board/rockchip/evb_rk3588/built-in.o
 .text.board_usb_init
                0x0000000000000000        0xc board/rockchip/evb_rk3588/built-in.o
 .data          0x0000000000000000        0x0 board/rockchip/evb_rk3588/built-in.o
 .data.dwc3_device_data
                0x0000000000000000       0x68 board/rockchip/evb_rk3588/built-in.o
 .bss           0x0000000000000000        0x0 board/rockchip/evb_rk3588/built-in.o
 .comment       0x0000000000000000       0x2e board/rockchip/evb_rk3588/built-in.o
 .note.GNU-stack
                0x0000000000000000        0x0 board/rockchip/evb_rk3588/built-in.o
 .debug_aranges
                0x0000000000000000       0x40 board/rockchip/evb_rk3588/built-in.o
 .debug_info    0x0000000000000000     0x13ba board/rockchip/evb_rk3588/built-in.o
 .debug_abbrev  0x0000000000000000      0x298 board/rockchip/evb_rk3588/built-in.o
 .debug_line    0x0000000000000000      0x22c board/rockchip/evb_rk3588/built-in.o
 .debug_frame   0x0000000000000000       0x50 board/rockchip/evb_rk3588/built-in.o
 .debug_str     0x0000000000000000     0x1587 board/rockchip/evb_rk3588/built-in.o
 .debug_loc     0x0000000000000000       0x72 board/rockchip/evb_rk3588/built-in.o
 .debug_ranges  0x0000000000000000       0x30 board/rockchip/evb_rk3588/built-in.o
 .text          0x0000000000000000        0x0 common/spl/built-in.o
 .text.spl_perform_fixups
                0x0000000000000000        0x4 common/spl/built-in.o
 .text.spl_board_prepare_for_jump
                0x0000000000000000        0x8 common/spl/built-in.o
 .text.spl_board_storages_fixup
                0x0000000000000000        0x4 common/spl/built-in.o
 .text.spl_fixup_fdt
                0x0000000000000000        0x4 common/spl/built-in.o
 .text.spl_board_prepare_for_linux
                0x0000000000000000        0x4 common/spl/built-in.o
 .text.spl_set_header_raw_uboot
                0x0000000000000000       0x2c common/spl/built-in.o
 .text.spl_parse_image_header
                0x0000000000000000        0x8 common/spl/built-in.o
 .text.board_boot_order
                0x0000000000000000       0x24 common/spl/built-in.o
 .text.spl_fit_standalone_release
                0x0000000000000000        0x8 common/spl/built-in.o
 .text.spl_start_uboot
                0x0000000000000000        0x8 common/spl/built-in.o
 .bss           0x0000000000000000        0x0 common/spl/built-in.o
 .bss.boot_params_ptr
                0x0000000000000000        0x8 common/spl/built-in.o
 .text          0x0000000000000000        0x0 common/init/built-in.o
 .text.board_init_f_boot_flags
                0x0000000000000000       0x24 common/init/built-in.o
 .text.show_boot_progress
                0x0000000000000000        0x4 common/init/built-in.o
 .data          0x0000000000000000        0x0 common/init/built-in.o
 .bss           0x0000000000000000        0x0 common/init/built-in.o
 .text          0x0000000000000000        0x0 common/built-in.o
 .text.fdt_read_prop
                0x0000000000000000       0x48 common/built-in.o
 .text.fdt_pack_reg
                0x0000000000000000       0xdc common/built-in.o
 .text.fdt_getprop_u32_default_node
                0x0000000000000000       0x50 common/built-in.o
 .text.fdt_getprop_u32_default
                0x0000000000000000       0x5c common/built-in.o
 .text.fdt_find_and_setprop
                0x0000000000000000       0x94 common/built-in.o
 .text.fdt_setprop_uxx
                0x0000000000000000       0x38 common/built-in.o
 .text.fdt_root
                0x0000000000000000       0x98 common/built-in.o
 .text.fdt_initrd
                0x0000000000000000      0x16c common/built-in.o
 .text.board_fdt_chosen_bootargs
                0x0000000000000000        0xc common/built-in.o
 .text.fdt_chosen
                0x0000000000000000       0xb8 common/built-in.o
 .text.do_fixup_by_path
                0x0000000000000000       0x4c common/built-in.o
 .text.do_fixup_by_path_u32
                0x0000000000000000       0x28 common/built-in.o
 .text.do_fixup_by_prop
                0x0000000000000000       0xc8 common/built-in.o
 .text.do_fixup_by_prop_u32
                0x0000000000000000       0x28 common/built-in.o
 .text.do_fixup_by_compat
                0x0000000000000000       0xa8 common/built-in.o
 .text.do_fixup_by_compat_u32
                0x0000000000000000       0x28 common/built-in.o
 .text.fdt_fixup_memory_banks
                0x0000000000000000      0x164 common/built-in.o
 .text.fdt_fixup_memory
                0x0000000000000000       0x2c common/built-in.o
 .text.fdt_update_reserved_memory
                0x0000000000000000       0xa0 common/built-in.o
 .text.fdt_fixup_ethernet
                0x0000000000000000      0x1ac common/built-in.o
 .text.fdt_increase_size
                0x0000000000000000       0x14 common/built-in.o
 .text.fdt_bootargs_append
                0x0000000000000000      0x13c common/built-in.o
 .text.fdt_bootargs_append_ab
                0x0000000000000000       0xb8 common/built-in.o
 .text.fdt_del_node_and_alias
                0x0000000000000000       0x5c common/built-in.o
 .text.fdt_node_offset_by_compat_reg
                0x0000000000000000       0xa0 common/built-in.o
 .text.fdt_alloc_phandle
                0x0000000000000000       0x6c common/built-in.o
 .text.fdt_set_phandle
                0x0000000000000000       0x6c common/built-in.o
 .text.fdt_create_phandle
                0x0000000000000000       0x78 common/built-in.o
 .text.fdt_set_node_status
                0x0000000000000000       0xd8 common/built-in.o
 .text.fdt_set_status_by_alias
                0x0000000000000000       0x40 common/built-in.o
 .text.fdt_verify_alias_address
                0x0000000000000000       0xdc common/built-in.o
 .text.fdt_read_range
                0x0000000000000000      0x154 common/built-in.o
 .text.fdt_setup_simplefb_node
                0x0000000000000000      0x1fc common/built-in.o
 .text.fdt_fixup_display
                0x0000000000000000       0xe8 common/built-in.o
 .text.fdt_overlay_apply_verbose
                0x0000000000000000       0x80 common/built-in.o
 .text.console_setfile
                0x0000000000000000       0xbc common/built-in.o
 .text.serial_printf
                0x0000000000000000       0xb4 common/built-in.o
 .text.fgetc    0x0000000000000000       0x24 common/built-in.o
 .text.getc     0x0000000000000000       0x30 common/built-in.o
 .text.ftstc    0x0000000000000000       0x24 common/built-in.o
 .text.tstc     0x0000000000000000       0x30 common/built-in.o
 .text.fputc    0x0000000000000000       0x24 common/built-in.o
 .text.fputs    0x0000000000000000       0x20 common/built-in.o
 .text.fclear   0x0000000000000000       0x24 common/built-in.o
 .text.fprintf  0x0000000000000000       0xb8 common/built-in.o
 .text.ctrlc    0x0000000000000000       0x58 common/built-in.o
 .text.confirm_yesno
                0x0000000000000000       0xd4 common/built-in.o
 .text.disable_ctrlc
                0x0000000000000000       0x14 common/built-in.o
 .text.had_ctrlc
                0x0000000000000000        0xc common/built-in.o
 .text.clear_ctrlc
                0x0000000000000000        0xc common/built-in.o
 .text.search_device
                0x0000000000000000       0x34 common/built-in.o
 .text.console_assign
                0x0000000000000000       0x68 common/built-in.o
 .text.console_announce_r
                0x0000000000000000       0x84 common/built-in.o
 .text.console_init_f
                0x0000000000000000       0x10 common/built-in.o
 .text.stdio_print_current_devices
                0x0000000000000000       0xc0 common/built-in.o
 .text.console_init_r
                0x0000000000000000       0xdc common/built-in.o
 .text.sbrk     0x0000000000000000       0x74 common/built-in.o
 .text.mem_malloc_init
                0x0000000000000000       0x20 common/built-in.o
 .text.malloc_trim
                0x0000000000000000       0xd8 common/built-in.o
 .text.fREe     0x0000000000000000      0x230 common/built-in.o
 .text.mALLOc   0x0000000000000000      0x660 common/built-in.o
 .text.cALLOc   0x0000000000000000       0xe4 common/built-in.o
 .text.rEALLOc  0x0000000000000000      0x47c common/built-in.o
 .text.mEMALIGn
                0x0000000000000000      0x190 common/built-in.o
 .text.vALLOc   0x0000000000000000        0xc common/built-in.o
 .text.pvALLOc  0x0000000000000000       0x10 common/built-in.o
 .text.cfree    0x0000000000000000        0x4 common/built-in.o
 .text.malloc_usable_size
                0x0000000000000000       0x44 common/built-in.o
 .text.mALLOPt  0x0000000000000000       0x5c common/built-in.o
 .text.initf_malloc
                0x0000000000000000       0x18 common/built-in.o
 .text.image_check_hcrc
                0x0000000000000000       0x50 common/built-in.o
 .text.image_check_dcrc
                0x0000000000000000       0x44 common/built-in.o
 .text.image_multi_count
                0x0000000000000000       0x20 common/built-in.o
 .text.image_multi_getimg
                0x0000000000000000       0x88 common/built-in.o
 .text.env_get_bootm_low
                0x0000000000000000       0x30 common/built-in.o
 .text.env_get_bootm_size
                0x0000000000000000       0x78 common/built-in.o
 .text.env_get_bootm_mapsize
                0x0000000000000000       0x30 common/built-in.o
 .text.memmove_wd
                0x0000000000000000       0x10 common/built-in.o
 .text.genimg_print_size
                0x0000000000000000       0x38 common/built-in.o
 .text.get_table_entry
                0x0000000000000000       0x20 common/built-in.o
 .text.genimg_get_short_name
                0x0000000000000000       0x28 common/built-in.o
 .text.genimg_get_cat_name
                0x0000000000000000       0x78 common/built-in.o
 .text.genimg_get_cat_short_name
                0x0000000000000000       0x78 common/built-in.o
 .text.genimg_get_cat_count
                0x0000000000000000       0x1c common/built-in.o
 .text.genimg_get_cat_desc
                0x0000000000000000       0x1c common/built-in.o
 .text.get_table_entry_name
                0x0000000000000000       0x28 common/built-in.o
 .text.genimg_get_os_name
                0x0000000000000000       0x18 common/built-in.o
 .text.genimg_get_arch_name
                0x0000000000000000       0x18 common/built-in.o
 .text.genimg_get_type_name
                0x0000000000000000       0x18 common/built-in.o
 .text.genimg_get_type_short_name
                0x0000000000000000       0x10 common/built-in.o
 .text.genimg_get_comp_name
                0x0000000000000000       0x18 common/built-in.o
 .text.image_print_contents
                0x0000000000000000      0x1bc common/built-in.o
 .text.genimg_get_comp_short_name
                0x0000000000000000       0x10 common/built-in.o
 .text.genimg_get_os_short_name
                0x0000000000000000       0x10 common/built-in.o
 .text.genimg_get_arch_short_name
                0x0000000000000000       0x10 common/built-in.o
 .text.genimg_get_arch_id
                0x0000000000000000       0x18 common/built-in.o
 .text.genimg_get_type_id
                0x0000000000000000       0x18 common/built-in.o
 .text.genimg_get_kernel_addr_fit
                0x0000000000000000       0x7c common/built-in.o
 .text.genimg_get_kernel_addr
                0x0000000000000000       0x24 common/built-in.o
 .text.genimg_get_format
                0x0000000000000000       0x5c common/built-in.o
 .text.genimg_has_config
                0x0000000000000000       0x10 common/built-in.o
 .text.boot_get_ramdisk
                0x0000000000000000      0x370 common/built-in.o
 .text.boot_ramdisk_high
                0x0000000000000000      0x154 common/built-in.o
 .text.boot_get_setup
                0x0000000000000000        0x4 common/built-in.o
 .text.boot_get_loadable
                0x0000000000000000      0x190 common/built-in.o
 .text.image_setup_linux
                0x0000000000000000       0x6c common/built-in.o
 .text.fdt_error
                0x0000000000000000       0x38 common/built-in.o
 .text.boot_fdt_add_mem_rsv_regions
                0x0000000000000000      0x190 common/built-in.o
 .text.boot_fdt_add_sysmem_rsv_regions
                0x0000000000000000      0x18c common/built-in.o
 .text.boot_relocate_fdt
                0x0000000000000000      0x1cc common/built-in.o
 .text.boot_get_fdt
                0x0000000000000000      0x374 common/built-in.o
 .text.ft_verify_fdt
                0x0000000000000000        0x8 common/built-in.o
 .text.arch_fixup_fdt
                0x0000000000000000        0x8 common/built-in.o
 .text.image_setup_libfdt
                0x0000000000000000      0x114 common/built-in.o
 .text.fit_image_set_address
                0x0000000000000000       0x7c common/built-in.o
 .text.fit_parse_conf
                0x0000000000000000       0x78 common/built-in.o
 .text.fit_parse_subimage
                0x0000000000000000       0x78 common/built-in.o
 .text.fit_get_subimage_count
                0x0000000000000000       0x68 common/built-in.o
 .text.fit_get_timestamp
                0x0000000000000000       0x5c common/built-in.o
 .text.fit_image_get_node
                0x0000000000000000       0x48 common/built-in.o
 .text.fit_image_get_arch
                0x0000000000000000       0x4c common/built-in.o
 .text.fit_image_get_type
                0x0000000000000000       0x4c common/built-in.o
 .text.fit_image_is_preload
                0x0000000000000000       0x48 common/built-in.o
 .text.fit_image_set_load
                0x0000000000000000       0x10 common/built-in.o
 .text.fit_image_get_entry
                0x0000000000000000       0x10 common/built-in.o
 .text.fit_image_set_entry
                0x0000000000000000       0x10 common/built-in.o
 .text.fit_image_get_rollback_index
                0x0000000000000000       0x48 common/built-in.o
 .text.fit_get_end
                0x0000000000000000       0x10 common/built-in.o
 .text.fit_set_timestamp
                0x0000000000000000       0x3c common/built-in.o
 .text.fit_set_totalsize
                0x0000000000000000       0x3c common/built-in.o
 .text.fit_set_version
                0x0000000000000000       0x3c common/built-in.o
 .text.fit_calculate_hash
                0x0000000000000000        0x8 common/built-in.o
 .text.calculate_hash
                0x0000000000000000        0x4 common/built-in.o
 .text.fit_image_verify
                0x0000000000000000       0x90 common/built-in.o
 .text.fit_all_image_verify
                0x0000000000000000      0x114 common/built-in.o
 .text.fit_image_check_os
                0x0000000000000000       0x3c common/built-in.o
 .text.fit_image_check_arch
                0x0000000000000000       0x64 common/built-in.o
 .text.fit_image_check_type
                0x0000000000000000       0x3c common/built-in.o
 .text.fit_image_check_comp
                0x0000000000000000       0x3c common/built-in.o
 .text.fit_check_format
                0x0000000000000000       0x54 common/built-in.o
 .text.fit_conf_find_compat
                0x0000000000000000      0x1a4 common/built-in.o
 .text.fit_conf_get_node
                0x0000000000000000       0xcc common/built-in.o
 .text.fit_conf_get_prop_node_count
                0x0000000000000000        0x4 common/built-in.o
 .text.fit_conf_get_prop_node_index
                0x0000000000000000       0x3c common/built-in.o
 .text.fit_conf_get_prop_node
                0x0000000000000000        0x8 common/built-in.o
 .text.fit_conf_print
                0x0000000000000000      0x234 common/built-in.o
 .text.fit_get_node_from_config
                0x0000000000000000       0x54 common/built-in.o
 .text.fit_board_verify_required_sigs
                0x0000000000000000        0x8 common/built-in.o
 .text.fit_image_load_index
                0x0000000000000000      0x5e4 common/built-in.o
 .text.fit_image_load
                0x0000000000000000       0x38 common/built-in.o
 .text.boot_get_setup_fit
                0x0000000000000000       0x78 common/built-in.o
 .text.boot_get_fdt_fit
                0x0000000000000000      0x2d0 common/built-in.o
 .text.get_ram_size
                0x0000000000000000      0x11c common/built-in.o
 .text.get_effective_memsize
                0x0000000000000000        0x8 common/built-in.o
 .text.stdio_serial_clear
                0x0000000000000000        0x4 common/built-in.o
 .text.stdio_serial_tstc
                0x0000000000000000        0x4 common/built-in.o
 .text.stdio_serial_getc
                0x0000000000000000        0x4 common/built-in.o
 .text.stdio_serial_puts
                0x0000000000000000        0x8 common/built-in.o
 .text.stdio_serial_putc
                0x0000000000000000        0x8 common/built-in.o
 .text.stdio_get_list
                0x0000000000000000       0x10 common/built-in.o
 .text.stdio_get_by_name
                0x0000000000000000       0xfc common/built-in.o
 .text.stdio_clone
                0x0000000000000000       0x4c common/built-in.o
 .text.stdio_register_dev
                0x0000000000000000       0x58 common/built-in.o
 .text.stdio_register
                0x0000000000000000        0x8 common/built-in.o
 .text.stdio_init_tables
                0x0000000000000000       0x18 common/built-in.o
 .text.stdio_add_devices
                0x0000000000000000       0x84 common/built-in.o
 .text.stdio_init
                0x0000000000000000       0x1c common/built-in.o
 .text.android_dt_check_header
                0x0000000000000000       0x18 common/built-in.o
 .text.android_dt_get_fdt_by_index
                0x0000000000000000       0x78 common/built-in.o
 .text.android_dt_get_count
                0x0000000000000000        0xc common/built-in.o
 .text.board_run_command
                0x0000000000000000        0x8 common/built-in.o
 .text.run_command
                0x0000000000000000       0x14 common/built-in.o
 .text.run_command_repeatable
                0x0000000000000000       0x20 common/built-in.o
 .text.run_command_list
                0x0000000000000000       0x7c common/built-in.o
 .text.do_run   0x0000000000000000       0x80 common/built-in.o
 .text.cli_process_fdt
                0x0000000000000000       0x50 common/built-in.o
 .text.cli_secure_boot_cmd
                0x0000000000000000       0x74 common/built-in.o
 .text.cli_loop
                0x0000000000000000       0x10 common/built-in.o
 .text.cli_init
                0x0000000000000000        0x4 common/built-in.o
 .text.find_cmd_tbl
                0x0000000000000000       0xbc common/built-in.o
 .text.find_cmd
                0x0000000000000000       0x1c common/built-in.o
 .text.cmd_usage
                0x0000000000000000       0x28 common/built-in.o
 .text._do_help
                0x0000000000000000      0x188 common/built-in.o
 .text.cmd_get_data_size
                0x0000000000000000       0x6c common/built-in.o
 .text.cmd_process
                0x0000000000000000      0x10c common/built-in.o
 .text.cmd_process_error
                0x0000000000000000       0x38 common/built-in.o
 .text.hex1_bin
                0x0000000000000000       0x4c common/built-in.o
 .text.hex2_bin
                0x0000000000000000       0x40 common/built-in.o
 .text.srec_decode
                0x0000000000000000      0x22c common/built-in.o
 .rodata.fdt_set_node_status
                0x0000000000000000        0x4 common/built-in.o
 .rodata.__FUNCTION__.6898
                0x0000000000000000       0x17 common/built-in.o
 .rodata.board_fdt_chosen_bootargs.str1.1
                0x0000000000000000        0x9 common/built-in.o
 .rodata.do_fixup_by_path.str1.1
                0x0000000000000000       0x29 common/built-in.o
 .rodata.fdt_bootargs_append.str1.1
                0x0000000000000000       0x13 common/built-in.o
 .rodata.fdt_bootargs_append_ab.str1.1
                0x0000000000000000       0x3f common/built-in.o
 .rodata.fdt_chosen.str1.1
                0x0000000000000000       0x35 common/built-in.o
 .rodata.fdt_create_phandle.str1.1
                0x0000000000000000       0x1a common/built-in.o
 .rodata.fdt_fixup_display.str1.1
                0x0000000000000000       0x1c common/built-in.o
 .rodata.fdt_fixup_ethernet.str1.1
                0x0000000000000000       0x42 common/built-in.o
 .rodata.fdt_initrd.str1.1
                0x0000000000000000       0x97 common/built-in.o
 .rodata.fdt_overlay_apply_verbose.str1.1
                0x0000000000000000       0x83 common/built-in.o
 .rodata.fdt_read_range.str1.1
                0x0000000000000000        0xf common/built-in.o
 .rodata.fdt_root.str1.1
                0x0000000000000000       0x4e common/built-in.o
 .rodata.fdt_set_node_status.str1.1
                0x0000000000000000       0x3a common/built-in.o
 .rodata.fdt_set_phandle.str1.1
                0x0000000000000000       0x16 common/built-in.o
 .rodata.fdt_setup_simplefb_node.str1.1
                0x0000000000000000       0x2c common/built-in.o
 .rodata.fdt_verify_alias_address.str1.1
                0x0000000000000000       0xcd common/built-in.o
 .rodata.confirm_yesno.str1.1
                0x0000000000000000       0x10 common/built-in.o
 .rodata.console_announce_r.str1.1
                0x0000000000000000        0x7 common/built-in.o
 .rodata.stdio_print_current_devices.str1.1
                0x0000000000000000       0x74 common/built-in.o
 .rodata.mALLOPt
                0x0000000000000000        0x4 common/built-in.o
 .rodata.rEALLOc.str1.1
                0x0000000000000000       0x25 common/built-in.o
 .rodata.boot_get_loadable.str1.1
                0x0000000000000000       0x3e common/built-in.o
 .rodata.boot_get_ramdisk.str1.1
                0x0000000000000000      0x115 common/built-in.o
 .rodata.boot_ramdisk_high.str1.1
                0x0000000000000000       0x63 common/built-in.o
 .rodata.env_get_bootm_low.str1.1
                0x0000000000000000        0xa common/built-in.o
 .rodata.env_get_bootm_mapsize.str1.1
                0x0000000000000000        0xe common/built-in.o
 .rodata.env_get_bootm_size.str1.1
                0x0000000000000000        0xb common/built-in.o
 .rodata.genimg_get_arch_id.str1.1
                0x0000000000000000        0x4 common/built-in.o
 .rodata.genimg_get_arch_name.str1.1
                0x0000000000000000       0x15 common/built-in.o
 .rodata.genimg_get_comp_name.str1.1
                0x0000000000000000       0x14 common/built-in.o
 .rodata.genimg_get_os_name.str1.1
                0x0000000000000000        0xb common/built-in.o
 .rodata.genimg_get_short_name.str1.1
                0x0000000000000000        0x8 common/built-in.o
 .rodata.genimg_get_type_id.str1.1
                0x0000000000000000        0x6 common/built-in.o
 .rodata.genimg_get_type_name.str1.1
                0x0000000000000000        0xe common/built-in.o
 .rodata.genimg_print_size.str1.1
                0x0000000000000000        0xe common/built-in.o
 .rodata.image_print_contents.str1.1
                0x0000000000000000       0xd4 common/built-in.o
 .rodata.table_info
                0x0000000000000000       0x60 common/built-in.o
 .rodata.uimage_arch
                0x0000000000000000      0x288 common/built-in.o
 .rodata.uimage_type
                0x0000000000000000      0x330 common/built-in.o
 .rodata.unknown_str.6407
                0x0000000000000000        0x9 common/built-in.o
 .rodata.boot_fdt_add_mem_rsv_regions.str1.1
                0x0000000000000000       0x86 common/built-in.o
 .rodata.boot_fdt_add_sysmem_rsv_regions.str1.1
                0x0000000000000000       0x16 common/built-in.o
 .rodata.boot_get_fdt.str1.1
                0x0000000000000000      0x1c3 common/built-in.o
 .rodata.boot_relocate_fdt.str1.1
                0x0000000000000000       0xe2 common/built-in.o
 .rodata.fdt_error.str1.1
                0x0000000000000000       0x2d common/built-in.o
 .rodata.image_setup_libfdt.str1.1
                0x0000000000000000       0x8f common/built-in.o
 .rodata.CSWTCH.117
                0x0000000000000000       0xe0 common/built-in.o
 .rodata.boot_get_fdt_fit.str1.1
                0x0000000000000000       0x4f common/built-in.o
 .rodata.boot_get_setup_fit.str1.1
                0x0000000000000000        0x6 common/built-in.o
 .rodata.fit_all_image_verify.str1.1
                0x0000000000000000       0x7a common/built-in.o
 .rodata.fit_conf_find_compat.str1.1
                0x0000000000000000       0x1f common/built-in.o
 .rodata.fit_conf_get_node.str1.1
                0x0000000000000000        0x8 common/built-in.o
 .rodata.fit_conf_print.str1.1
                0x0000000000000000       0xd9 common/built-in.o
 .rodata.fit_get_timestamp.str1.1
                0x0000000000000000        0xa common/built-in.o
 .rodata.fit_image_get_arch.str1.1
                0x0000000000000000        0x5 common/built-in.o
 .rodata.fit_image_get_entry.str1.1
                0x0000000000000000        0x6 common/built-in.o
 .rodata.fit_image_get_node.str1.1
                0x0000000000000000        0x8 common/built-in.o
 .rodata.fit_image_get_rollback_index.str1.1
                0x0000000000000000        0xf common/built-in.o
 .rodata.fit_image_get_type.str1.1
                0x0000000000000000        0x5 common/built-in.o
 .rodata.fit_image_is_preload.str1.1
                0x0000000000000000        0x8 common/built-in.o
 .rodata.fit_image_load_index.str1.1
                0x0000000000000000      0x215 common/built-in.o
 .rodata.fit_image_verify.str1.1
                0x0000000000000000       0x4b common/built-in.o
 .rodata.fit_set_version.str1.1
                0x0000000000000000        0x8 common/built-in.o
 .rodata.stdio_add_devices.str1.1
                0x0000000000000000        0x7 common/built-in.o
 .rodata.stdio_get_by_name.str1.1
                0x0000000000000000        0xb common/built-in.o
 .rodata.android_dt_get_fdt_by_index.str1.1
                0x0000000000000000       0x29 common/built-in.o
 .rodata.cli_process_fdt.str1.1
                0x0000000000000000       0x13 common/built-in.o
 .rodata.cli_secure_boot_cmd.str1.1
                0x0000000000000000       0x50 common/built-in.o
 .rodata.do_run.str1.1
                0x0000000000000000       0x1c common/built-in.o
 .rodata.CSWTCH.18
                0x0000000000000000       0x16 common/built-in.o
 .rodata._do_help.str1.1
                0x0000000000000000       0x5f common/built-in.o
 .rodata.cmd_process.str1.1
                0x0000000000000000       0x3f common/built-in.o
 .rodata.cmd_process_error.str1.1
                0x0000000000000000       0x1f common/built-in.o
 .rodata.cmd_usage.str1.1
                0x0000000000000000        0xa common/built-in.o
 .rodata.srec_decode
                0x0000000000000000        0xa common/built-in.o
 .data          0x0000000000000000        0x0 common/built-in.o
 .data.av_      0x0000000000000000      0x810 common/built-in.o
 .data.sbrk_base
                0x0000000000000000        0x8 common/built-in.o
 .data.trim_threshold
                0x0000000000000000        0x8 common/built-in.o
 .data.load_addr
                0x0000000000000000        0x8 common/built-in.o
 .data.stdio_names
                0x0000000000000000       0x18 common/built-in.o
 .bss           0x0000000000000000        0x0 common/built-in.o
 .bss.ctrlc_disabled
                0x0000000000000000        0x4 common/built-in.o
 .bss.ctrlc_was_pressed
                0x0000000000000000        0x4 common/built-in.o
 .bss.current_mallinfo
                0x0000000000000000       0x28 common/built-in.o
 .bss.max_sbrked_mem
                0x0000000000000000        0x8 common/built-in.o
 .bss.max_total_mem
                0x0000000000000000        0x8 common/built-in.o
 .bss.mem_malloc_brk
                0x0000000000000000        0x8 common/built-in.o
 .bss.mem_malloc_end
                0x0000000000000000        0x8 common/built-in.o
 .bss.mem_malloc_start
                0x0000000000000000        0x8 common/built-in.o
 .bss.top_pad   0x0000000000000000        0x8 common/built-in.o
 .bss.msg.6408  0x0000000000000000       0x1e common/built-in.o
 .bss.save_addr
                0x0000000000000000        0x8 common/built-in.o
 .bss.save_size
                0x0000000000000000        0x8 common/built-in.o
 .bss.rsv_done.6638
                0x0000000000000000        0x4 common/built-in.o
 .bss.rsv_done.6659
                0x0000000000000000        0x4 common/built-in.o
 .bss.devs      0x0000000000000000       0x78 common/built-in.o
 .text          0x0000000000000000        0x0 cmd/built-in.o
 .text._do_env_set.isra.0.constprop.4
                0x0000000000000000      0x1ac cmd/built-in.o
 .text.get_env_id
                0x0000000000000000        0xc cmd/built-in.o
 .text.env_set  0x0000000000000000       0x54 cmd/built-in.o
 .text.env_set_ulong
                0x0000000000000000       0x2c cmd/built-in.o
 .text.env_set_hex
                0x0000000000000000       0x3c cmd/built-in.o
 .text.envmatch
                0x0000000000000000       0x7c cmd/built-in.o
 .text.env_get_f
                0x0000000000000000       0xe8 cmd/built-in.o
 .text.env_get  0x0000000000000000       0x78 cmd/built-in.o
 .text.env_update_extract_subset
                0x0000000000000000       0xfc cmd/built-in.o
 .text.env_exist
                0x0000000000000000      0x144 cmd/built-in.o
 .text.env_append
                0x0000000000000000       0xe8 cmd/built-in.o
 .text.env_delete
                0x0000000000000000       0xa4 cmd/built-in.o
 .text.env_update_filter
                0x0000000000000000      0x360 cmd/built-in.o
 .text.env_update
                0x0000000000000000        0x8 cmd/built-in.o
 .text.env_get_hex
                0x0000000000000000       0x48 cmd/built-in.o
 .text.env_get_ulong
                0x0000000000000000       0x40 cmd/built-in.o
 .rodata.__func__.6269
                0x0000000000000000        0xb cmd/built-in.o
 .rodata.__func__.6283
                0x0000000000000000        0xc cmd/built-in.o
 .rodata._do_env_set.isra.0.constprop.4.str1.1
                0x0000000000000000       0x7c cmd/built-in.o
 .rodata.env_append.str1.1
                0x0000000000000000       0x1d cmd/built-in.o
 .rodata.env_exist.str1.1
                0x0000000000000000        0xd cmd/built-in.o
 .rodata.env_get_f.str1.1
                0x0000000000000000       0x30 cmd/built-in.o
 .rodata.env_set.str1.1
                0x0000000000000000        0x7 cmd/built-in.o
 .rodata.env_set_hex.str1.1
                0x0000000000000000        0x6 cmd/built-in.o
 .rodata.env_update_extract_subset.str1.1
                0x0000000000000000        0x2 cmd/built-in.o
 .rodata.env_update_filter.str1.1
                0x0000000000000000       0x24 cmd/built-in.o
 .data          0x0000000000000000        0x0 cmd/built-in.o
 .data.env_id   0x0000000000000000        0x4 cmd/built-in.o
 .bss           0x0000000000000000        0x0 cmd/built-in.o
 .comment       0x0000000000000000       0x2e cmd/built-in.o
 .note.GNU-stack
                0x0000000000000000        0x0 cmd/built-in.o
 .debug_aranges
                0x0000000000000000      0x120 cmd/built-in.o
 .debug_info    0x0000000000000000     0x2b69 cmd/built-in.o
 .debug_abbrev  0x0000000000000000      0x495 cmd/built-in.o
 .debug_line    0x0000000000000000      0x571 cmd/built-in.o
 .debug_frame   0x0000000000000000      0x3b0 cmd/built-in.o
 .debug_str     0x0000000000000000     0x1658 cmd/built-in.o
 .debug_loc     0x0000000000000000     0x21fa cmd/built-in.o
 .debug_ranges  0x0000000000000000      0x220 cmd/built-in.o
 .text          0x0000000000000000        0x0 env/built-in.o
 .text.env_get_yesno
                0x0000000000000000       0x4c env/built-in.o
 .text.board_env_fixup
                0x0000000000000000        0x4 env/built-in.o
 .text.env_get_default
                0x0000000000000000       0x3c env/built-in.o
 .text.set_default_env
                0x0000000000000000       0xa8 env/built-in.o
 .text.set_default_vars
                0x0000000000000000       0x2c env/built-in.o
 .text.set_board_env
                0x0000000000000000       0x7c env/built-in.o
 .text.env_import
                0x0000000000000000       0xc8 env/built-in.o
 .text.env_export
                0x0000000000000000       0x80 env/built-in.o
 .text.env_relocate
                0x0000000000000000       0x10 env/built-in.o
 .text.env_driver_lookup_default
                0x0000000000000000       0x50 env/built-in.o
 .text.env_get_char
                0x0000000000000000       0x54 env/built-in.o
 .text.env_load
                0x0000000000000000       0x34 env/built-in.o
 .text.env_save
                0x0000000000000000       0x34 env/built-in.o
 .text.env_init
                0x0000000000000000       0x50 env/built-in.o
 .rodata.default_environment
                0x0000000000000000       0x34 env/built-in.o
 .rodata.env_export.str1.1
                0x0000000000000000       0x27 env/built-in.o
 .rodata.env_import.str1.1
                0x0000000000000000       0x3f env/built-in.o
 .rodata.set_board_env.str1.1
                0x0000000000000000       0x1b env/built-in.o
 .rodata.set_default_env.str1.1
                0x0000000000000000       0x71 env/built-in.o
 .data          0x0000000000000000        0x0 env/built-in.o
 .data.env_htab
                0x0000000000000000       0x18 env/built-in.o
 .bss           0x0000000000000000        0x0 env/built-in.o
 .text          0x0000000000000000        0x0 lib/built-in.o
 .text.addBootConfigTrailer
                0x0000000000000000       0xb8 lib/built-in.o
 .text.addBootConfigParameters
                0x0000000000000000       0xc0 lib/built-in.o
 .text.rk_avb_get_pub_key
                0x0000000000000000       0x48 lib/built-in.o
 .text.rk_avb_get_perm_attr_cer
                0x0000000000000000       0x30 lib/built-in.o
 .text.rk_avb_set_perm_attr_cer
                0x0000000000000000       0x20 lib/built-in.o
 .text.rk_avb_read_permanent_attributes
                0x0000000000000000       0x30 lib/built-in.o
 .text.rk_avb_write_permanent_attributes
                0x0000000000000000       0x30 lib/built-in.o
 .text.rk_avb_read_flash_lock_state
                0x0000000000000000       0x98 lib/built-in.o
 .text.rk_avb_write_flash_lock_state
                0x0000000000000000       0x30 lib/built-in.o
 .text.rk_avb_write_lock_state
                0x0000000000000000       0x30 lib/built-in.o
 .text.rk_avb_read_lock_state
                0x0000000000000000       0x98 lib/built-in.o
 .text.rk_avb_write_perm_attr_flag
                0x0000000000000000       0x30 lib/built-in.o
 .text.rk_avb_read_perm_attr_flag
                0x0000000000000000       0x98 lib/built-in.o
 .text.rk_avb_read_vbootkey_hash
                0x0000000000000000       0x34 lib/built-in.o
 .text.rk_avb_write_vbootkey_hash
                0x0000000000000000       0x34 lib/built-in.o
 .text.rk_avb_close_optee_client
                0x0000000000000000       0x34 lib/built-in.o
 .text.rk_avb_read_attribute_hash
                0x0000000000000000       0x34 lib/built-in.o
 .text.rk_avb_write_attribute_hash
                0x0000000000000000       0x34 lib/built-in.o
 .text.rk_avb_read_all_rollback_index
                0x0000000000000000      0x214 lib/built-in.o
 .text.rk_avb_read_bootloader_locked_flag
                0x0000000000000000       0x1c lib/built-in.o
 .text.rk_bootloader_rollback_index_read
                0x0000000000000000       0xfc lib/built-in.o
 .text.rk_avb_get_bootloader_min_version
                0x0000000000000000      0x150 lib/built-in.o
 .text.rk_avb_get_at_vboot_state
                0x0000000000000000      0x1d4 lib/built-in.o
 .text.rk_avb_get_ab_info
                0x0000000000000000       0x7c lib/built-in.o
 .text.rk_avb_get_part_has_slot_info
                0x0000000000000000       0xf8 lib/built-in.o
 .text.rk_auth_unlock
                0x0000000000000000       0x7c lib/built-in.o
 .text.rk_generate_unlock_challenge
                0x0000000000000000       0x70 lib/built-in.o
 .text.rk_avb_init_ab_metadata
                0x0000000000000000       0x94 lib/built-in.o
 .text.rk_avb_write_perm_attr
                0x0000000000000000      0x1d8 lib/built-in.o
 .text.rk_avb_read_perm_attr
                0x0000000000000000       0x30 lib/built-in.o
 .text.rk_avb_update_stored_rollback_indexes_for_slot
                0x0000000000000000       0x70 lib/built-in.o
 .text.slot_is_bootable
                0x0000000000000000       0x30 lib/built-in.o
 .text.slot_normalize
                0x0000000000000000       0x44 lib/built-in.o
 .text.save_metadata_if_changed
                0x0000000000000000       0x3c lib/built-in.o
 .text.avb_ab_data_verify_and_byteswap
                0x0000000000000000       0xf4 lib/built-in.o
 .text.avb_ab_data_update_crc_and_byteswap
                0x0000000000000000       0x78 lib/built-in.o
 .text.avb_ab_data_init
                0x0000000000000000       0x70 lib/built-in.o
 .text.avb_ab_data_write
                0x0000000000000000       0x68 lib/built-in.o
 .text.avb_ab_data_read
                0x0000000000000000       0xb8 lib/built-in.o
 .text.load_metadata
                0x0000000000000000       0x6c lib/built-in.o
 .text.rk_avb_read_slot_count
                0x0000000000000000       0x10 lib/built-in.o
 .text.rk_avb_read_slot_suffixes
                0x0000000000000000       0x40 lib/built-in.o
 .text.avb_ab_mark_slot_active
                0x0000000000000000       0x84 lib/built-in.o
 .text.rk_avb_set_slot_active
                0x0000000000000000       0x70 lib/built-in.o
 .text.rk_avb_ab_slot_select
                0x0000000000000000       0xf8 lib/built-in.o
 .text.avb_ab_mark_slot_unbootable
                0x0000000000000000       0x5c lib/built-in.o
 .text.avb_ab_mark_slot_successful
                0x0000000000000000       0x84 lib/built-in.o
 .text.rk_get_lastboot
                0x0000000000000000       0x70 lib/built-in.o
 .text.rk_avb_get_current_slot
                0x0000000000000000       0x58 lib/built-in.o
 .text.rk_avb_ab_have_bootable_slot
                0x0000000000000000       0x28 lib/built-in.o
 .text.rk_avb_append_part_slot
                0x0000000000000000       0x94 lib/built-in.o
 .text.fdt_move
                0x0000000000000000       0x5c lib/built-in.o
 .text.fdt_setprop_inplace_namelen_partial
                0x0000000000000000       0x6c lib/built-in.o
 .text.fdt_setprop_inplace
                0x0000000000000000       0x8c lib/built-in.o
 .text.fdt_nop_property
                0x0000000000000000       0x48 lib/built-in.o
 .text._fdt_node_end_offset
                0x0000000000000000       0x4c lib/built-in.o
 .text.fdt_nop_node
                0x0000000000000000       0x68 lib/built-in.o
 .text._fdt_sw_check_header
                0x0000000000000000       0x1c lib/built-in.o
 .text._fdt_grab_space
                0x0000000000000000       0x58 lib/built-in.o
 .text.fdt_create
                0x0000000000000000       0x70 lib/built-in.o
 .text.fdt_resize
                0x0000000000000000       0xe0 lib/built-in.o
 .text.fdt_add_reservemap_entry
                0x0000000000000000       0x74 lib/built-in.o
 .text.fdt_finish_reservemap
                0x0000000000000000        0xc lib/built-in.o
 .text.fdt_begin_node
                0x0000000000000000       0x84 lib/built-in.o
 .text.fdt_end_node
                0x0000000000000000       0x44 lib/built-in.o
 .text.fdt_property_placeholder
                0x0000000000000000      0x124 lib/built-in.o
 .text.fdt_property
                0x0000000000000000       0x50 lib/built-in.o
 .text.fdt_finish
                0x0000000000000000      0x10c lib/built-in.o
 .text._fdt_packblocks
                0x0000000000000000       0xb0 lib/built-in.o
 .text.fdt_set_name
                0x0000000000000000       0xac lib/built-in.o
 .text.fdt_appendprop
                0x0000000000000000       0xec lib/built-in.o
 .text.fdt_delprop
                0x0000000000000000       0x74 lib/built-in.o
 .text.fdt_del_node
                0x0000000000000000       0x60 lib/built-in.o
 .text.fdt_open_into
                0x0000000000000000      0x1a4 lib/built-in.o
 .text.fdt_pack
                0x0000000000000000       0x6c lib/built-in.o
 .text.fdt_create_empty_tree
                0x0000000000000000       0x78 lib/built-in.o
 .text.overlay_phandle_add_offset
                0x0000000000000000       0x98 lib/built-in.o
 .text.overlay_adjust_node_phandles
                0x0000000000000000       0xa8 lib/built-in.o
 .text.overlay_update_local_node_references
                0x0000000000000000      0x1a8 lib/built-in.o
 .text.overlay_get_target
                0x0000000000000000       0xdc lib/built-in.o
 .text.overlay_apply_node
                0x0000000000000000      0x12c lib/built-in.o
 .text.fdt_overlay_apply
                0x0000000000000000      0x660 lib/built-in.o
 .text.fdt_get_max_phandle
                0x0000000000000000       0x80 lib/built-in.o
 .text.fdt_get_path
                0x0000000000000000      0x170 lib/built-in.o
 .text.fdt_node_offset_by_prop_value
                0x0000000000000000       0xb4 lib/built-in.o
 .text.fdt_node_offset_by_phandle_node
                0x0000000000000000       0xa8 lib/built-in.o
 .text.fdt_stringlist_count
                0x0000000000000000       0x7c lib/built-in.o
 .text.fdt_node_offset_by_compatible
                0x0000000000000000       0x84 lib/built-in.o
 .text.fdt_add_region
                0x0000000000000000       0x78 lib/built-in.o
 .text.fdt_find_regions
                0x0000000000000000      0x360 lib/built-in.o
 .text.fdt_add_alias_regions
                0x0000000000000000      0x1b0 lib/built-in.o
 .text.fdt_next_region
                0x0000000000000000      0x4d8 lib/built-in.o
 .text.fdt_first_region
                0x0000000000000000       0x38 lib/built-in.o
 .text.fdtdec_get_uint
                0x0000000000000000       0x40 lib/built-in.o
 .text.fdtdec_get_compatible
                0x0000000000000000       0x10 lib/built-in.o
 .text.fdtdec_get_uint64
                0x0000000000000000       0x40 lib/built-in.o
 .text.fdtdec_lookup
                0x0000000000000000       0x68 lib/built-in.o
 .text.fdtdec_next_compatible
                0x0000000000000000       0x10 lib/built-in.o
 .text.fdtdec_next_compatible_subnode
                0x0000000000000000       0x78 lib/built-in.o
 .text.fdtdec_next_alias
                0x0000000000000000       0xac lib/built-in.o
 .text.fdtdec_add_aliases_for_id
                0x0000000000000000      0x23c lib/built-in.o
 .text.fdtdec_find_aliases_for_id
                0x0000000000000000       0x60 lib/built-in.o
 .text.fdtdec_get_chosen_prop
                0x0000000000000000       0x44 lib/built-in.o
 .text.fdtdec_get_chosen_node
                0x0000000000000000       0x3c lib/built-in.o
 .text.fdtdec_check_fdt
                0x0000000000000000       0x18 lib/built-in.o
 .text.fdtdec_lookup_phandle
                0x0000000000000000       0x44 lib/built-in.o
 .text.decode_timing_property
                0x0000000000000000       0x8c lib/built-in.o
 .text.fdtdec_get_int_array_count
                0x0000000000000000       0x68 lib/built-in.o
 .text.fdtdec_locate_array
                0x0000000000000000       0x28 lib/built-in.o
 .text.fdtdec_get_bool
                0x0000000000000000       0x20 lib/built-in.o
 .text.fdtdec_get_child_count
                0x0000000000000000       0x40 lib/built-in.o
 .text.fdtdec_get_byte_array
                0x0000000000000000       0x48 lib/built-in.o
 .text.fdtdec_locate_byte_array
                0x0000000000000000       0x24 lib/built-in.o
 .text.fdtdec_get_config_int
                0x0000000000000000       0x60 lib/built-in.o
 .text.fdtdec_get_config_bool
                0x0000000000000000       0x54 lib/built-in.o
 .text.fdtdec_get_config_string
                0x0000000000000000       0x4c lib/built-in.o
 .text.fdtdec_decode_region
                0x0000000000000000       0x5c lib/built-in.o
 .text.fdtdec_get_addr
                0x0000000000000000        0x8 lib/built-in.o
 .text.fdt_get_resource
                0x0000000000000000      0x114 lib/built-in.o
 .text.fdt_get_named_resource
                0x0000000000000000       0x64 lib/built-in.o
 .text.fdtdec_decode_memory_region
                0x0000000000000000      0x130 lib/built-in.o
 .text.fdtdec_decode_display_timing
                0x0000000000000000      0x304 lib/built-in.o
 .text.fdtdec_setup_memory_size
                0x0000000000000000       0x5c lib/built-in.o
 .text.fdtdec_setup_memory_banksize
                0x0000000000000000      0x128 lib/built-in.o
 .text.drop_var_from_set.part.2
                0x0000000000000000       0x6c lib/built-in.o
 .text.hcreate_r
                0x0000000000000000       0x94 lib/built-in.o
 .text.hdestroy_r
                0x0000000000000000       0x1c lib/built-in.o
 .text.hmatch_r
                0x0000000000000000       0xb8 lib/built-in.o
 .text.hsearch_r
                0x0000000000000000      0x418 lib/built-in.o
 .text.hdelete_r
                0x0000000000000000      0x108 lib/built-in.o
 .text.himport_r
                0x0000000000000000      0x358 lib/built-in.o
 .text.hwalk_r  0x0000000000000000       0x70 lib/built-in.o
 .text.display_options_get_banner_priv
                0x0000000000000000       0xbc lib/built-in.o
 .text.display_options_get_banner
                0x0000000000000000       0x10 lib/built-in.o
 .text.display_options
                0x0000000000000000       0x34 lib/built-in.o
 .text.print_freq
                0x0000000000000000      0x134 lib/built-in.o
 .text.print_size
                0x0000000000000000       0xfc lib/built-in.o
 .text.print_buffer
                0x0000000000000000      0x1e8 lib/built-in.o
 .text.crc32_wd
                0x0000000000000000        0x4 lib/built-in.o
 .text.crc32_wd_buf
                0x0000000000000000       0x3c lib/built-in.o
 .text.iter_div_u64_rem
                0x0000000000000000       0x28 lib/built-in.o
 .text.spl_hang_reset
                0x0000000000000000        0x4 lib/built-in.o
 .text.copy_from_user
                0x0000000000000000       0x18 lib/built-in.o
 .text.get_mem  0x0000000000000000       0x2c lib/built-in.o
 .text.kmem_cache_alloc
                0x0000000000000000        0xc lib/built-in.o
 .text.skip_spaces
                0x0000000000000000       0x20 lib/built-in.o
 .text.strim    0x0000000000000000       0x5c lib/built-in.o
 .text.membuff_purge
                0x0000000000000000        0xc lib/built-in.o
 .text.membuff_putraw
                0x0000000000000000       0xa0 lib/built-in.o
 .text.membuff_putbyte
                0x0000000000000000       0x3c lib/built-in.o
 .text.membuff_getraw
                0x0000000000000000       0x84 lib/built-in.o
 .text.membuff_getbyte
                0x0000000000000000       0x3c lib/built-in.o
 .text.membuff_peekbyte
                0x0000000000000000       0x3c lib/built-in.o
 .text.membuff_get
                0x0000000000000000       0x9c lib/built-in.o
 .text.membuff_put
                0x0000000000000000       0x84 lib/built-in.o
 .text.membuff_isempty
                0x0000000000000000       0x10 lib/built-in.o
 .text.membuff_avail
                0x0000000000000000       0x54 lib/built-in.o
 .text.membuff_size
                0x0000000000000000       0x10 lib/built-in.o
 .text.membuff_makecontig
                0x0000000000000000       0xa4 lib/built-in.o
 .text.membuff_free
                0x0000000000000000       0x3c lib/built-in.o
 .text.membuff_readline
                0x0000000000000000       0xa8 lib/built-in.o
 .text.membuff_extend_by
                0x0000000000000000       0xe0 lib/built-in.o
 .text.membuff_init
                0x0000000000000000       0x10 lib/built-in.o
 .text.membuff_new
                0x0000000000000000       0x48 lib/built-in.o
 .text.membuff_uninit
                0x0000000000000000        0xc lib/built-in.o
 .text.membuff_dispose
                0x0000000000000000        0xc lib/built-in.o
 .text.emit     0x0000000000000000       0x2c lib/built-in.o
 .text.store_char_in_data
                0x0000000000000000       0x30 lib/built-in.o
 .text.get_escape_char
                0x0000000000000000       0x84 lib/built-in.o
 .text.relocate
                0x0000000000000000       0x58 lib/built-in.o
 .text.match    0x0000000000000000      0x3f8 lib/built-in.o
 .text.loop_greedy
                0x0000000000000000       0xb4 lib/built-in.o
 .text.loop_non_greedy
                0x0000000000000000       0xa0 lib/built-in.o
 .text.quantifier
                0x0000000000000000       0xc0 lib/built-in.o
 .text.fixup_branch
                0x0000000000000000       0x54 lib/built-in.o
 .text.compile  0x0000000000000000      0x394 lib/built-in.o
 .text.slre_compile
                0x0000000000000000       0xe4 lib/built-in.o
 .text.slre_match
                0x0000000000000000       0x98 lib/built-in.o
 .text.strncpy  0x0000000000000000       0x20 lib/built-in.o
 .text.strcat   0x0000000000000000       0x2c lib/built-in.o
 .text.strncat  0x0000000000000000       0x40 lib/built-in.o
 .text.strspn   0x0000000000000000       0x3c lib/built-in.o
 .text.strpbrk  0x0000000000000000       0x34 lib/built-in.o
 .text.strtok   0x0000000000000000       0x80 lib/built-in.o
 .text.strsep   0x0000000000000000       0x40 lib/built-in.o
 .text.strswab  0x0000000000000000       0x3c lib/built-in.o
 .text.strlcpy  0x0000000000000000       0x58 lib/built-in.o
 .text.memscan  0x0000000000000000       0x24 lib/built-in.o
 .text.strstr   0x0000000000000000       0x68 lib/built-in.o
 .text.memchr_inv
                0x0000000000000000      0x108 lib/built-in.o
 .text.atol     0x0000000000000000       0x78 lib/built-in.o
 .text.atoi     0x0000000000000000       0x14 lib/built-in.o
 .text.table_compute_checksum
                0x0000000000000000       0x2c lib/built-in.o
 .text.get_ticks
                0x0000000000000000       0x44 lib/built-in.o
 .text.print_hex_dump
                0x0000000000000000        0x4 lib/built-in.o
 .text.print_hex_dump_bytes
                0x0000000000000000        0x4 lib/built-in.o
 .text.uuid_str_valid
                0x0000000000000000       0x88 lib/built-in.o
 .text.uuid_str_to_bin
                0x0000000000000000      0x190 lib/built-in.o
 .text.gen_rand_uuid
                0x0000000000000000       0x78 lib/built-in.o
 .text.gen_rand_uuid_str
                0x0000000000000000       0x38 lib/built-in.o
 .text.__assert_fail
                0x0000000000000000       0x1c lib/built-in.o
 .text.panic_str
                0x0000000000000000       0x18 lib/built-in.o
 .text.strict_strtoul
                0x0000000000000000       0x88 lib/built-in.o
 .text.simple_strtol
                0x0000000000000000       0x2c lib/built-in.o
 .text.ustrtoul
                0x0000000000000000       0x80 lib/built-in.o
 .text.simple_strtoull
                0x0000000000000000       0x88 lib/built-in.o
 .text.ustrtoull
                0x0000000000000000       0x80 lib/built-in.o
 .rodata.addBootConfigTrailer.str1.1
                0x0000000000000000        0xd lib/built-in.o
 .rodata.__func__.7362
                0x0000000000000000       0x1e lib/built-in.o
 .rodata.rk_auth_unlock.str1.1
                0x0000000000000000       0x1b lib/built-in.o
 .rodata.rk_avb_close_optee_client.str1.1
                0x0000000000000000       0x26 lib/built-in.o
 .rodata.rk_avb_get_ab_info.str1.1
                0x0000000000000000       0x47 lib/built-in.o
 .rodata.rk_avb_get_at_vboot_state.str1.1
                0x0000000000000000      0x15c lib/built-in.o
 .rodata.rk_avb_get_bootloader_min_version.str1.1
                0x0000000000000000       0x44 lib/built-in.o
 .rodata.rk_avb_get_part_has_slot_info.str1.1
                0x0000000000000000       0x78 lib/built-in.o
 .rodata.rk_avb_get_perm_attr_cer.str1.1
                0x0000000000000000       0x22 lib/built-in.o
 .rodata.rk_avb_init_ab_metadata.str1.1
                0x0000000000000000       0x4f lib/built-in.o
 .rodata.rk_avb_read_all_rollback_index.str1.1
                0x0000000000000000       0x72 lib/built-in.o
 .rodata.rk_avb_read_attribute_hash.str1.1
                0x0000000000000000       0x23 lib/built-in.o
 .rodata.rk_avb_read_flash_lock_state.str1.1
                0x0000000000000000       0x74 lib/built-in.o
 .rodata.rk_avb_read_lock_state.str1.1
                0x0000000000000000       0x3f lib/built-in.o
 .rodata.rk_avb_read_perm_attr_flag.str1.1
                0x0000000000000000       0x51 lib/built-in.o
 .rodata.rk_avb_read_permanent_attributes.str1.1
                0x0000000000000000       0x2a lib/built-in.o
 .rodata.rk_avb_read_vbootkey_hash.str1.1
                0x0000000000000000       0x22 lib/built-in.o
 .rodata.rk_avb_write_attribute_hash.str1.1
                0x0000000000000000       0x24 lib/built-in.o
 .rodata.rk_avb_write_flash_lock_state.str1.1
                0x0000000000000000       0x26 lib/built-in.o
 .rodata.rk_avb_write_lock_state.str1.1
                0x0000000000000000       0x20 lib/built-in.o
 .rodata.rk_avb_write_perm_attr_flag.str1.1
                0x0000000000000000       0x2f lib/built-in.o
 .rodata.rk_avb_write_permanent_attributes.str1.1
                0x0000000000000000       0x2b lib/built-in.o
 .rodata.rk_avb_write_vbootkey_hash.str1.1
                0x0000000000000000       0x23 lib/built-in.o
 .rodata.rk_bootloader_rollback_index_read.str1.1
                0x0000000000000000       0x18 lib/built-in.o
 .rodata.__func__.6565
                0x0000000000000000       0x18 lib/built-in.o
 .rodata.avb_ab_data_read.str1.1
                0x0000000000000000       0x77 lib/built-in.o
 .rodata.avb_ab_data_verify_and_byteswap.str1.1
                0x0000000000000000       0x51 lib/built-in.o
 .rodata.avb_ab_data_write.str1.1
                0x0000000000000000       0x22 lib/built-in.o
 .rodata.avb_ab_mark_slot_successful.str1.1
                0x0000000000000000       0x2c lib/built-in.o
 .rodata.load_metadata.str1.1
                0x0000000000000000       0x27 lib/built-in.o
 .rodata.rk_avb_ab_slot_select.str1.1
                0x0000000000000000       0x50 lib/built-in.o
 .rodata.rk_avb_append_part_slot.str1.1
                0x0000000000000000       0x21 lib/built-in.o
 .rodata.rk_avb_read_slot_suffixes.str1.1
                0x0000000000000000        0x3 lib/built-in.o
 .rodata.rk_avb_set_slot_active.str1.1
                0x0000000000000000       0x34 lib/built-in.o
 .rodata.fdt_create_empty_tree.str1.1
                0x0000000000000000        0x1 lib/built-in.o
 .rodata.fdt_overlay_apply.str1.1
                0x0000000000000000       0x51 lib/built-in.o
 .rodata.overlay_adjust_node_phandles.str1.1
                0x0000000000000000       0x16 lib/built-in.o
 .rodata.overlay_get_target.str1.1
                0x0000000000000000       0x13 lib/built-in.o
 .rodata.fdt_find_regions
                0x0000000000000000       0x12 lib/built-in.o
 .rodata.fdt_next_region
                0x0000000000000000       0x12 lib/built-in.o
 .rodata.fdt_add_alias_regions.str1.1
                0x0000000000000000        0x8 lib/built-in.o
 .rodata.compat_names
                0x0000000000000000      0x148 lib/built-in.o
 .rodata.fdtdec_decode_display_timing.str1.1
                0x0000000000000000       0xca lib/built-in.o
 .rodata.fdtdec_decode_memory_region.str1.1
                0x0000000000000000       0x25 lib/built-in.o
 .rodata.fdtdec_get_chosen_prop.str1.1
                0x0000000000000000        0x8 lib/built-in.o
 .rodata.fdtdec_get_config_int.str1.1
                0x0000000000000000        0x8 lib/built-in.o
 .rodata.fdtdec_next_alias.str1.1
                0x0000000000000000        0x7 lib/built-in.o
 .rodata.fdtdec_setup_memory_banksize.str1.1
                0x0000000000000000       0x13 lib/built-in.o
 .rodata.himport_r.str1.1
                0x0000000000000000       0x99 lib/built-in.o
 .rodata.display_options.str1.1
                0x0000000000000000        0x3 lib/built-in.o
 .rodata.display_options_get_banner_priv.str1.1
                0x0000000000000000       0x15 lib/built-in.o
 .rodata.names.5965
                0x0000000000000000        0x3 lib/built-in.o
 .rodata.names.5988
                0x0000000000000000        0x6 lib/built-in.o
 .rodata.print_buffer.str1.1
                0x0000000000000000       0x19 lib/built-in.o
 .rodata.print_freq.str1.1
                0x0000000000000000       0x1b lib/built-in.o
 .rodata.print_size.str1.1
                0x0000000000000000       0x15 lib/built-in.o
 .rodata.match  0x0000000000000000       0x22 lib/built-in.o
 .rodata.compile.str1.1
                0x0000000000000000       0x4a lib/built-in.o
 .rodata.emit.str1.1
                0x0000000000000000       0x1f lib/built-in.o
 .rodata.match.str1.1
                0x0000000000000000       0x18 lib/built-in.o
 .rodata.quantifier.str1.1
                0x0000000000000000       0x17 lib/built-in.o
 .rodata.store_char_in_data.str1.1
                0x0000000000000000       0x1f lib/built-in.o
 .rodata.hex_asc
                0x0000000000000000       0x11 lib/built-in.o
 .rodata.hex_asc_upper
                0x0000000000000000       0x11 lib/built-in.o
 .rodata.__assert_fail.str1.1
                0x0000000000000000       0x22 lib/built-in.o
 .data          0x0000000000000000        0x0 lib/built-in.o
 .data.curr_device
                0x0000000000000000        0x4 lib/built-in.o
 .data.last_slot_index.6525
                0x0000000000000000        0x4 lib/built-in.o
 .data.cur      0x0000000000000000        0x4 lib/built-in.o
 .data.current  0x0000000000000000        0x8 lib/built-in.o
 .bss           0x0000000000000000        0x0 lib/built-in.o
 .bss.errno     0x0000000000000000        0x4 lib/built-in.o
 .bss.___strtok
                0x0000000000000000        0x8 lib/built-in.o
 .text          0x0000000000000000        0x0 disk/built-in.o
 .text.blk_get_dev
                0x0000000000000000       0x3c disk/built-in.o
 .text.dev_print
                0x0000000000000000      0x1dc disk/built-in.o
 .text.part_print
                0x0000000000000000      0x15c disk/built-in.o
 .text.part_get_type
                0x0000000000000000       0x40 disk/built-in.o
 .text.part_get_info_whole_disk
                0x0000000000000000       0x54 disk/built-in.o
 .text.blk_get_device_by_str
                0x0000000000000000      0x154 disk/built-in.o
 .text.blk_get_device_part_str
                0x0000000000000000      0x364 disk/built-in.o
 .text.part_get_info_by_name_strict
                0x0000000000000000        0x8 disk/built-in.o
 .text.part_set_generic_name
                0x0000000000000000       0x48 disk/built-in.o
 .text.set_protective_mbr
                0x0000000000000000       0xe8 disk/built-in.o
 .text.get_disk_guid
                0x0000000000000000       0xec disk/built-in.o
 .text.part_print_efi
                0x0000000000000000      0x26c disk/built-in.o
 .text.write_gpt_table
                0x0000000000000000      0x414 disk/built-in.o
 .text.gpt_fill_pte
                0x0000000000000000      0x3b4 disk/built-in.o
 .text.gpt_fill_header
                0x0000000000000000      0x250 disk/built-in.o
 .text.gpt_restore
                0x0000000000000000      0x120 disk/built-in.o
 .text.gpt_verify_headers
                0x0000000000000000       0x98 disk/built-in.o
 .text.gpt_verify_partitions
                0x0000000000000000      0x1f4 disk/built-in.o
 .text.is_valid_gpt_buf
                0x0000000000000000      0x104 disk/built-in.o
 .text.write_mbr_and_gpt_partitions
                0x0000000000000000      0x470 disk/built-in.o
 .rodata        0x0000000000000000       0x10 disk/built-in.o
 .rodata.dev_print
                0x0000000000000000       0x1c disk/built-in.o
 .rodata.part_print
                0x0000000000000000       0x10 disk/built-in.o
 .rodata.CSWTCH.43
                0x0000000000000000       0x40 disk/built-in.o
 .rodata.blk_get_device_by_str.str1.1
                0x0000000000000000       0x6a disk/built-in.o
 .rodata.blk_get_device_part_str.str1.1
                0x0000000000000000      0x109 disk/built-in.o
 .rodata.dev_print.str1.1
                0x0000000000000000      0x15e disk/built-in.o
 .rodata.part_get_info_whole_disk.str1.1
                0x0000000000000000       0x12 disk/built-in.o
 .rodata.part_print.str1.1
                0x0000000000000000       0xaa disk/built-in.o
 .rodata.part_set_generic_name.str1.1
                0x0000000000000000        0xa disk/built-in.o
 .rodata.__func__.6559
                0x0000000000000000        0xe disk/built-in.o
 .rodata.__func__.6569
                0x0000000000000000        0xf disk/built-in.o
 .rodata.__func__.6592
                0x0000000000000000       0x13 disk/built-in.o
 .rodata.__func__.6655
                0x0000000000000000        0xc disk/built-in.o
 .rodata.__func__.6673
                0x0000000000000000       0x13 disk/built-in.o
 .rodata.__func__.6697
                0x0000000000000000       0x11 disk/built-in.o
 .rodata.__func__.6707
                0x0000000000000000       0x1d disk/built-in.o
 .rodata.gpt_fill_header.str1.1
                0x0000000000000000       0x24 disk/built-in.o
 .rodata.gpt_fill_pte.str1.1
                0x0000000000000000       0x5b disk/built-in.o
 .rodata.gpt_verify_partitions.str1.1
                0x0000000000000000       0xa3 disk/built-in.o
 .rodata.is_valid_gpt_buf.str1.1
                0x0000000000000000       0x30 disk/built-in.o
 .rodata.part_print_efi.str1.1
                0x0000000000000000       0x8d disk/built-in.o
 .rodata.set_protective_mbr.str1.1
                0x0000000000000000       0x55 disk/built-in.o
 .rodata.write_mbr_and_gpt_partitions.str1.1
                0x0000000000000000       0x7c disk/built-in.o
 .data          0x0000000000000000        0x0 disk/built-in.o
 .bss           0x0000000000000000        0x0 disk/built-in.o
 .text          0x0000000000000000        0x0 drivers/built-in.o
 .text.clk_free
                0x0000000000000000       0x20 drivers/built-in.o
 .text.clk_get_phase
                0x0000000000000000       0x20 drivers/built-in.o
 .text.clk_enable_bulk
                0x0000000000000000       0x5c drivers/built-in.o
 .text.clk_disable
                0x0000000000000000       0x20 drivers/built-in.o
 .text.clk_release_all
                0x0000000000000000       0x7c drivers/built-in.o
 .text.clk_get_bulk
                0x0000000000000000       0xc0 drivers/built-in.o
 .text.clk_disable_bulk
                0x0000000000000000       0x5c drivers/built-in.o
 .text.clks_probe
                0x0000000000000000       0x88 drivers/built-in.o
 .text.rockchip_get_cpu_settings
                0x0000000000000000       0x24 drivers/built-in.o
 .text._device_find_global_by_of_offset
                0x0000000000000000       0x68 drivers/built-in.o
 .text.device_bind
                0x0000000000000000       0x2c drivers/built-in.o
 .text.device_get_child
                0x0000000000000000       0x5c drivers/built-in.o
 .text.device_find_child_by_seq
                0x0000000000000000       0x58 drivers/built-in.o
 .text.device_get_child_by_seq
                0x0000000000000000       0x60 drivers/built-in.o
 .text.device_find_child_by_of_offset
                0x0000000000000000       0x44 drivers/built-in.o
 .text.device_get_child_by_of_offset
                0x0000000000000000       0x40 drivers/built-in.o
 .text.device_get_global_by_of_offset
                0x0000000000000000       0x48 drivers/built-in.o
 .text.dev_get_driver_ops
                0x0000000000000000       0x18 drivers/built-in.o
 .text.dev_get_uclass_name
                0x0000000000000000       0x1c drivers/built-in.o
 .text.device_has_children
                0x0000000000000000       0x14 drivers/built-in.o
 .text.device_has_active_children
                0x0000000000000000       0x3c drivers/built-in.o
 .text.device_is_last_sibling
                0x0000000000000000       0x24 drivers/built-in.o
 .text.of_machine_is_compatible
                0x0000000000000000       0x2c drivers/built-in.o
 .text.devfdt_get_addr_name
                0x0000000000000000       0x50 drivers/built-in.o
 .text.devfdt_get_addr
                0x0000000000000000        0x8 drivers/built-in.o
 .text.devfdt_get_addr_ptr
                0x0000000000000000        0x8 drivers/built-in.o
 .text.devfdt_map_physmem
                0x0000000000000000       0x1c drivers/built-in.o
 .text.dm_fixup_for_gd_move
                0x0000000000000000       0x20 drivers/built-in.o
 .text.dm_set_translation_offset
                0x0000000000000000       0x28 drivers/built-in.o
 .text.dm_uninit
                0x0000000000000000       0x1c drivers/built-in.o
 .text.uclass_destroy
                0x0000000000000000       0x50 drivers/built-in.o
 .text.uclass_get_name
                0x0000000000000000       0x30 drivers/built-in.o
 .text.uclass_get_by_name
                0x0000000000000000       0x54 drivers/built-in.o
 .text.uclass_find_device_by_name
                0x0000000000000000       0x98 drivers/built-in.o
 .text.uclass_get_device_by_name
                0x0000000000000000       0x38 drivers/built-in.o
 .text.uclass_first_device_check
                0x0000000000000000       0x40 drivers/built-in.o
 .text.uclass_next_device_check
                0x0000000000000000       0x30 drivers/built-in.o
 .text.list_count_items
                0x0000000000000000       0x28 drivers/built-in.o
 .text.show_devices
                0x0000000000000000      0x144 drivers/built-in.o
 .text.dm_dump_all
                0x0000000000000000       0x54 drivers/built-in.o
 .text.dm_dump_uclass
                0x0000000000000000      0x16c drivers/built-in.o
 .text.regmap_uninit
                0x0000000000000000        0x8 drivers/built-in.o
 .text.regmap_update_bits
                0x0000000000000000       0x2c drivers/built-in.o
 .text.syscon_regmap_lookup_by_phandle
                0x0000000000000000       0x44 drivers/built-in.o
 .text.of_get_first_property
                0x0000000000000000       0x14 drivers/built-in.o
 .text.of_get_next_property
                0x0000000000000000       0x14 drivers/built-in.o
 .text.of_get_property_by_prop
                0x0000000000000000       0x34 drivers/built-in.o
 .text.of_find_compatible_node
                0x0000000000000000       0x58 drivers/built-in.o
 .text.of_property_read_u64
                0x0000000000000000       0x44 drivers/built-in.o
 .text.of_write_u32_array
                0x0000000000000000       0x54 drivers/built-in.o
 .text.of_parse_phandle
                0x0000000000000000       0x3c drivers/built-in.o
 .text.of_alias_scan
                0x0000000000000000      0x23c drivers/built-in.o
 .text.of_alias_get_dev
                0x0000000000000000       0x6c drivers/built-in.o
 .text.of_alias_dump
                0x0000000000000000       0xc8 drivers/built-in.o
 .text.of_get_stdout
                0x0000000000000000        0xc drivers/built-in.o
 .text.dev_read_s32_default
                0x0000000000000000       0x18 drivers/built-in.o
 .text.dev_read_subnode
                0x0000000000000000       0x18 drivers/built-in.o
 .text.dev_read_next_subnode
                0x0000000000000000       0x14 drivers/built-in.o
 .text.dev_read_name
                0x0000000000000000       0x40 drivers/built-in.o
 .text.dev_read_string_index
                0x0000000000000000       0x18 drivers/built-in.o
 .text.dev_read_string_count
                0x0000000000000000       0x18 drivers/built-in.o
 .text.dev_read_addr_cells
                0x0000000000000000       0x18 drivers/built-in.o
 .text.dev_read_size_cells
                0x0000000000000000       0x18 drivers/built-in.o
 .text.dev_read_first_prop
                0x0000000000000000       0x18 drivers/built-in.o
 .text.dev_read_next_prop
                0x0000000000000000        0x4 drivers/built-in.o
 .text.dev_read_prop_by_prop
                0x0000000000000000        0x4 drivers/built-in.o
 .text.dev_write_u32_array
                0x0000000000000000       0x40 drivers/built-in.o
 .text.dev_read_u8_array_ptr
                0x0000000000000000       0x18 drivers/built-in.o
 .text.dev_read_enabled
                0x0000000000000000       0x50 drivers/built-in.o
 .text.dev_read_resource
                0x0000000000000000       0x18 drivers/built-in.o
 .text.dev_read_resource_byname
                0x0000000000000000       0x18 drivers/built-in.o
 .text.dev_translate_address
                0x0000000000000000       0x18 drivers/built-in.o
 .text.of_read_fmap_entry
                0x0000000000000000       0xd4 drivers/built-in.o
 .text.ofnode_read_s32_default
                0x0000000000000000       0x2c drivers/built-in.o
 .text.ofnode_read_u64
                0x0000000000000000       0x54 drivers/built-in.o
 .text.ofnode_find_subnode
                0x0000000000000000       0x94 drivers/built-in.o
 .text.ofnode_write_u32_array
                0x0000000000000000       0x4c drivers/built-in.o
 .text.ofnode_get_parent
                0x0000000000000000       0x58 drivers/built-in.o
 .text.decode_timing_property
                0x0000000000000000       0x78 drivers/built-in.o
 .text.ofnode_get_addr
                0x0000000000000000        0x8 drivers/built-in.o
 .text.ofnode_read_string_index
                0x0000000000000000       0x90 drivers/built-in.o
 .text.ofnode_read_string_count
                0x0000000000000000       0x4c drivers/built-in.o
 .text.ofnode_get_chosen_prop
                0x0000000000000000       0x30 drivers/built-in.o
 .text.ofnode_get_chosen_node
                0x0000000000000000       0x2c drivers/built-in.o
 .text.ofnode_decode_display_timing
                0x0000000000000000      0x300 drivers/built-in.o
 .text.ofnode_get_first_property
                0x0000000000000000       0x78 drivers/built-in.o
 .text.ofnode_get_next_property
                0x0000000000000000       0x78 drivers/built-in.o
 .text.ofnode_get_property_by_prop
                0x0000000000000000       0x54 drivers/built-in.o
 .text.ofnode_read_u8_array_ptr
                0x0000000000000000       0x80 drivers/built-in.o
 .text.ofnode_read_pci_addr
                0x0000000000000000       0xac drivers/built-in.o
 .text.ofnode_read_addr_cells
                0x0000000000000000       0x3c drivers/built-in.o
 .text.ofnode_read_size_cells
                0x0000000000000000       0x3c drivers/built-in.o
 .text.ofnode_read_resource
                0x0000000000000000       0xa0 drivers/built-in.o
 .text.ofnode_read_resource_byname
                0x0000000000000000       0x4c drivers/built-in.o
 .text.ofnode_translate_address
                0x0000000000000000       0x40 drivers/built-in.o
 .text.crypto_hmac_init
                0x0000000000000000       0x34 drivers/built-in.o
 .text.crypto_hmac_update
                0x0000000000000000       0x2c drivers/built-in.o
 .text.crypto_hmac_final
                0x0000000000000000       0x20 drivers/built-in.o
 .text.crypto_sha_regions_csum
                0x0000000000000000       0xc0 drivers/built-in.o
 .text.crypto_rsa_verify
                0x0000000000000000       0x48 drivers/built-in.o
 .text.crypto_cipher
                0x0000000000000000       0x24 drivers/built-in.o
 .text.crypto_mac
                0x0000000000000000       0x20 drivers/built-in.o
 .text.crypto_ae
                0x0000000000000000       0x20 drivers/built-in.o
 .text.rsa_mod_exp
                0x0000000000000000       0x1c drivers/built-in.o
 .text.rk_pka_set_startmemaddr_reg
                0x0000000000000000       0x14 drivers/built-in.o
 .text.rk_pka_set_N_NP_T0_T1_reg
                0x0000000000000000       0x3c drivers/built-in.o
 .text.rk_pka_set_default_N_NP_T0_T1_reg
                0x0000000000000000       0x1c drivers/built-in.o
 .text.rk_pka_get_status
                0x0000000000000000       0x2c drivers/built-in.o
 .text.rk_pka_get_status_alu_outzero
                0x0000000000000000       0x30 drivers/built-in.o
 .text.rk_pka_get_status_mod_overfl
                0x0000000000000000       0x30 drivers/built-in.o
 .text.rk_pka_get_status_carry
                0x0000000000000000       0x30 drivers/built-in.o
 .text.rk_pka_get_status_alu_signout
                0x0000000000000000       0x30 drivers/built-in.o
 .text.rk_pka_get_status_modinv_ofzero
                0x0000000000000000       0x30 drivers/built-in.o
 .text.rk_pka_get_status_opcode
                0x0000000000000000       0x30 drivers/built-in.o
 .text.rk_pka_get_status_tag
                0x0000000000000000       0x30 drivers/built-in.o
 .text.rk_pka_set_regsize
                0x0000000000000000       0x34 drivers/built-in.o
 .text.rk_pka_set_regaddr
                0x0000000000000000       0x34 drivers/built-in.o
 .text.rk_pka_hw_load_value2pka_mem
                0x0000000000000000       0x30 drivers/built-in.o
 .text.rk_pka_hw_reverse_load_block2pka_mem
                0x0000000000000000       0x38 drivers/built-in.o
 .text.rk_pka_hw_read_value_from_pka_mem
                0x0000000000000000       0x34 drivers/built-in.o
 .text.rk_pka_hw_reverse_read_block_from_pka_mem
                0x0000000000000000       0x3c drivers/built-in.o
 .text.rk_abs_add
                0x0000000000000000      0x134 drivers/built-in.o
 .text.rk_exptmod
                0x0000000000000000      0x230 drivers/built-in.o
 .text.util_reverse_words_buff
                0x0000000000000000       0x3c drivers/built-in.o
 .text.util_reverse_buff
                0x0000000000000000       0x3c drivers/built-in.o
 .text.util_reverse_memcpy
                0x0000000000000000       0x1c drivers/built-in.o
 .text.util_reverse_word_memcpy
                0x0000000000000000       0x1c drivers/built-in.o
 .text.misc_write
                0x0000000000000000       0x1c drivers/built-in.o
 .text.misc_call
                0x0000000000000000       0x1c drivers/built-in.o
 .text.misc_otp_write
                0x0000000000000000        0x4 drivers/built-in.o
 .text.reset_cpu
                0x0000000000000000       0x10 drivers/built-in.o
 .text.scmi_to_linux_errno
                0x0000000000000000       0x44 drivers/built-in.o
 .text.devm_scmi_process_msg
                0x0000000000000000       0x1c drivers/built-in.o
 .text.scmi_dt_get_smt_buffer
                0x0000000000000000       0xbc drivers/built-in.o
 .text.scmi_write_msg_to_smt
                0x0000000000000000       0xb4 drivers/built-in.o
 .text.scmi_read_resp_from_smt
                0x0000000000000000       0x8c drivers/built-in.o
 .text.scmi_clear_smt_channel
                0x0000000000000000       0x14 drivers/built-in.o
 .text.mmc_switch
                0x0000000000000000       0x10 drivers/built-in.o
 .text.mmc_hwpart_config
                0x0000000000000000      0x3e8 drivers/built-in.o
 .text.mmc_set_dsr
                0x0000000000000000       0x10 drivers/built-in.o
 .text.cpu_mmc_init
                0x0000000000000000        0x8 drivers/built-in.o
 .text.board_mmc_init
                0x0000000000000000        0x8 drivers/built-in.o
 .text.mmc_set_preinit
                0x0000000000000000        0x8 drivers/built-in.o
 .text.dm_mmc_get_wp
                0x0000000000000000       0x1c drivers/built-in.o
 .text.mmc_getwp
                0x0000000000000000        0x8 drivers/built-in.o
 .text.get_mmc_num
                0x0000000000000000       0x20 drivers/built-in.o
 .text.mmc_get_next_devnum
                0x0000000000000000        0x8 drivers/built-in.o
 .text.print_mmc_devices
                0x0000000000000000       0xfc drivers/built-in.o
 .text.mmc_unbind
                0x0000000000000000       0x1c drivers/built-in.o
 .text.dwmci_memcpy_fromio
                0x0000000000000000        0x4 drivers/built-in.o
 .text.dwmci_memcpy_toio
                0x0000000000000000        0x4 drivers/built-in.o
 .text.board_mmc_dm_reinit
                0x0000000000000000       0x78 drivers/built-in.o
 .text.mmc_rpmb_request
                0x0000000000000000       0xbc drivers/built-in.o
 .text.rpmb_hmac
                0x0000000000000000       0xec drivers/built-in.o
 .text.mmc_rpmb_response
                0x0000000000000000      0x11c drivers/built-in.o
 .text.mmc_rpmb_status
                0x0000000000000000       0x84 drivers/built-in.o
 .text.mmc_rpmb_get_counter
                0x0000000000000000       0x94 drivers/built-in.o
 .text.mmc_rpmb_set_key
                0x0000000000000000       0x8c drivers/built-in.o
 .text.mmc_rpmb_read
                0x0000000000000000      0x19c drivers/built-in.o
 .text.mmc_rpmb_write
                0x0000000000000000      0x208 drivers/built-in.o
 .text.read_counter
                0x0000000000000000       0x54 drivers/built-in.o
 .text.program_key
                0x0000000000000000       0x84 drivers/built-in.o
 .text.authenticated_read
                0x0000000000000000       0x60 drivers/built-in.o
 .text.authenticated_write
                0x0000000000000000       0x84 drivers/built-in.o
 .text.pinctrl_decode_pin_config
                0x0000000000000000       0x58 drivers/built-in.o
 .text.pinctrl_request
                0x0000000000000000       0x1c drivers/built-in.o
 .text.pinctrl_request_noflags
                0x0000000000000000        0x8 drivers/built-in.o
 .text.pinctrl_get_periph_id
                0x0000000000000000       0x1c drivers/built-in.o
 .text.pinctrl_get_gpio_mux
                0x0000000000000000       0x1c drivers/built-in.o
 .text.pinctrl_get_pins_count
                0x0000000000000000       0x1c drivers/built-in.o
 .text.pinctrl_generic_set_state_subnode
                0x0000000000000000      0x26c drivers/built-in.o
 .text.pinctrl_generic_set_state
                0x0000000000000000       0x6c drivers/built-in.o
 .text.rockchip_translate_drive_value
                0x0000000000000000       0x44 drivers/built-in.o
 .text.rockchip_translate_pull_value
                0x0000000000000000       0x40 drivers/built-in.o
 .text.ram_get_info
                0x0000000000000000       0x1c drivers/built-in.o
 .text.__serial_getc
                0x0000000000000000       0x40 drivers/built-in.o
 .text.__serial_tstc
                0x0000000000000000       0x20 drivers/built-in.o
 .text.__serial_clear
                0x0000000000000000       0x18 drivers/built-in.o
 .text.serial_initialize
                0x0000000000000000        0x4 drivers/built-in.o
 .text.serial_puts
                0x0000000000000000       0x44 drivers/built-in.o
 .text.serial_getc
                0x0000000000000000       0x14 drivers/built-in.o
 .text.serial_tstc
                0x0000000000000000       0x14 drivers/built-in.o
 .text.serial_setbrg
                0x0000000000000000       0x30 drivers/built-in.o
 .text.serial_clear
                0x0000000000000000       0x14 drivers/built-in.o
 .text.serial_dev_putc
                0x0000000000000000       0x10 drivers/built-in.o
 .text.serial_dev_puts
                0x0000000000000000       0x40 drivers/built-in.o
 .text.serial_dev_getc
                0x0000000000000000       0x10 drivers/built-in.o
 .text.serial_dev_tstc
                0x0000000000000000       0x10 drivers/built-in.o
 .text.serial_dev_setbrg
                0x0000000000000000       0x1c drivers/built-in.o
 .text.serial_dev_clear
                0x0000000000000000        0xc drivers/built-in.o
 .text.serial_stdio_init
                0x0000000000000000        0x4 drivers/built-in.o
 .text.ns16550_calc_divisor
                0x0000000000000000       0x10 drivers/built-in.o
 .text.NS16550_reinit
                0x0000000000000000       0x5c drivers/built-in.o
 .text.NS16550_putc
                0x0000000000000000       0x34 drivers/built-in.o
 .text.NS16550_getc
                0x0000000000000000       0x30 drivers/built-in.o
 .text.NS16550_tstc
                0x0000000000000000       0x20 drivers/built-in.o
 .text.debug_uart_getc
                0x0000000000000000       0x38 drivers/built-in.o
 .text.debug_uart_tstc
                0x0000000000000000       0x34 drivers/built-in.o
 .text.debug_uart_clrc
                0x0000000000000000       0x30 drivers/built-in.o
 .text.debug_uart_setbrg
                0x0000000000000000       0x64 drivers/built-in.o
 .text.printhex2
                0x0000000000000000       0x5c drivers/built-in.o
 .text.printhex4
                0x0000000000000000       0x5c drivers/built-in.o
 .text.printhex8
                0x0000000000000000       0x5c drivers/built-in.o
 .text.printdec
                0x0000000000000000       0xac drivers/built-in.o
 .text.spl_flash_get_sw_write_prot
                0x0000000000000000       0x1c drivers/built-in.o
 .text.spi_flash_free
                0x0000000000000000        0x4 drivers/built-in.o
 .text.spi_flash_probe_bus_cs
                0x0000000000000000       0x48 drivers/built-in.o
 .text.spi_flash_probe
                0x0000000000000000       0x2c drivers/built-in.o
 .text.dm_spi_get_mmap
                0x0000000000000000       0x3c drivers/built-in.o
 .text.spi_write_then_read
                0x0000000000000000       0x7c drivers/built-in.o
 .text.spi_chip_select
                0x0000000000000000       0x24 drivers/built-in.o
 .text.spi_find_chip_select
                0x0000000000000000       0xac drivers/built-in.o
 .text.spi_cs_info
                0x0000000000000000       0x28 drivers/built-in.o
 .text.spi_cs_is_valid
                0x0000000000000000       0x44 drivers/built-in.o
 .text.spi_find_bus_and_cs
                0x0000000000000000       0x68 drivers/built-in.o
 .text.spi_get_bus_and_cs
                0x0000000000000000      0x18c drivers/built-in.o
 .text.spi_setup_slave
                0x0000000000000000       0x30 drivers/built-in.o
 .text.spi_free_slave
                0x0000000000000000        0x8 drivers/built-in.o
 .text.get_function
                0x0000000000000000       0xb4 drivers/built-in.o
 .text.gpio_to_device
                0x0000000000000000       0x88 drivers/built-in.o
 .text.dm_gpio_lookup_name
                0x0000000000000000      0x110 drivers/built-in.o
 .text.gpio_lookup_name
                0x0000000000000000       0x7c drivers/built-in.o
 .text.gpio_hog_probe_all
                0x0000000000000000       0x84 drivers/built-in.o
 .text.gpio_hog_lookup_name
                0x0000000000000000       0x58 drivers/built-in.o
 .text.gpio_request
                0x0000000000000000       0x34 drivers/built-in.o
 .text.gpio_requestf
                0x0000000000000000       0x14 drivers/built-in.o
 .text.gpio_free
                0x0000000000000000       0x28 drivers/built-in.o
 .text.gpio_direction_input
                0x0000000000000000       0x48 drivers/built-in.o
 .text.gpio_direction_output
                0x0000000000000000       0x58 drivers/built-in.o
 .text.dm_gpio_get_open_drain
                0x0000000000000000       0x5c drivers/built-in.o
 .text.dm_gpio_set_open_drain
                0x0000000000000000       0x68 drivers/built-in.o
 .text.dm_gpio_set_dir
                0x0000000000000000        0x8 drivers/built-in.o
 .text.gpio_get_value
                0x0000000000000000       0x24 drivers/built-in.o
 .text.gpio_set_value
                0x0000000000000000       0x34 drivers/built-in.o
 .text.gpio_get_bank_info
                0x0000000000000000       0x2c drivers/built-in.o
 .text.gpio_get_function
                0x0000000000000000        0xc drivers/built-in.o
 .text.gpio_get_raw_function
                0x0000000000000000        0xc drivers/built-in.o
 .text.gpio_get_status
                0x0000000000000000      0x130 drivers/built-in.o
 .text.gpio_claim_vector
                0x0000000000000000       0xa8 drivers/built-in.o
 .text.gpio_get_values_as_int
                0x0000000000000000       0x64 drivers/built-in.o
 .text.dm_gpio_get_values_as_int
                0x0000000000000000       0x70 drivers/built-in.o
 .text.gpio_request_by_name_nodev
                0x0000000000000000       0x7c drivers/built-in.o
 .text.gpio_get_list_count
                0x0000000000000000       0x28 drivers/built-in.o
 .text.gpio_free_list
                0x0000000000000000       0x54 drivers/built-in.o
 .text.gpio_free_list_nodev
                0x0000000000000000       0x10 drivers/built-in.o
 .text.gpio_request_list_by_name_nodev
                0x0000000000000000       0xdc drivers/built-in.o
 .text.gpio_request_list_by_name
                0x0000000000000000       0x18 drivers/built-in.o
 .text.gpio_get_number
                0x0000000000000000       0x24 drivers/built-in.o
 .text.mtd_ooblayout_ecc
                0x0000000000000000       0x80 drivers/built-in.o
 .text.idr_find
                0x0000000000000000       0x20 drivers/built-in.o
 .text.idr_get_next
                0x0000000000000000       0x3c drivers/built-in.o
 .text.idr_alloc
                0x0000000000000000       0x48 drivers/built-in.o
 .text.__mtd_next_device
                0x0000000000000000       0x24 drivers/built-in.o
 .text.mtd_dev_list_updated
                0x0000000000000000       0x18 drivers/built-in.o
 .text.__get_mtd_device
                0x0000000000000000       0x40 drivers/built-in.o
 .text.get_mtd_device
                0x0000000000000000       0xa0 drivers/built-in.o
 .text.get_mtd_device_nm
                0x0000000000000000       0x64 drivers/built-in.o
 .text.__put_mtd_device
                0x0000000000000000       0x54 drivers/built-in.o
 .text.put_mtd_device
                0x0000000000000000        0x4 drivers/built-in.o
 .text.mtd_erase
                0x0000000000000000       0x84 drivers/built-in.o
 .text.mtd_get_unmapped_area
                0x0000000000000000       0x34 drivers/built-in.o
 .text.mtd_write
                0x0000000000000000       0xa8 drivers/built-in.o
 .text.mtd_panic_write
                0x0000000000000000       0x58 drivers/built-in.o
 .text.mtd_ooblayout_find_eccregion
                0x0000000000000000        0xc drivers/built-in.o
 .text.mtd_ooblayout_get_eccbytes
                0x0000000000000000        0xc drivers/built-in.o
 .text.mtd_ooblayout_set_eccbytes
                0x0000000000000000        0xc drivers/built-in.o
 .text.mtd_ooblayout_count_eccbytes
                0x0000000000000000       0x58 drivers/built-in.o
 .text.mtd_get_fact_prot_info
                0x0000000000000000       0x20 drivers/built-in.o
 .text.mtd_read_fact_prot_reg
                0x0000000000000000       0x24 drivers/built-in.o
 .text.mtd_get_user_prot_info
                0x0000000000000000       0x20 drivers/built-in.o
 .text.mtd_read_user_prot_reg
                0x0000000000000000       0x24 drivers/built-in.o
 .text.mtd_write_user_prot_reg
                0x0000000000000000       0x58 drivers/built-in.o
 .text.mtd_lock_user_prot_reg
                0x0000000000000000       0x20 drivers/built-in.o
 .text.mtd_lock
                0x0000000000000000       0x44 drivers/built-in.o
 .text.mtd_is_locked
                0x0000000000000000       0x44 drivers/built-in.o
 .text.mtd_block_isreserved
                0x0000000000000000       0x2c drivers/built-in.o
 .text.mtd_block_markbad
                0x0000000000000000       0x3c drivers/built-in.o
 .text.mtd_search_alternate_name
                0x0000000000000000       0xf8 drivers/built-in.o
 .text.mtd_probe_devices
                0x0000000000000000       0x74 drivers/built-in.o
 .text.mtd_arg_off
                0x0000000000000000       0x7c drivers/built-in.o
 .text.mtd_arg_off_size
                0x0000000000000000      0x114 drivers/built-in.o
 .text.mtd_probe
                0x0000000000000000       0x14 drivers/built-in.o
 .text.mtd_part_parse
                0x0000000000000000      0x208 drivers/built-in.o
 .text.spinand_find_supported_op
                0x0000000000000000       0x60 drivers/built-in.o
 .text.get_desc
                0x0000000000000000       0xd0 drivers/built-in.o
 .text.if_typename_to_iftype
                0x0000000000000000       0x5c drivers/built-in.o
 .text.blk_get_if_type_name
                0x0000000000000000       0x10 drivers/built-in.o
 .text.blk_get_devnum_by_typename
                0x0000000000000000       0xe0 drivers/built-in.o
 .text.blk_list_part
                0x0000000000000000       0x7c drivers/built-in.o
 .text.blk_print_part_devnum
                0x0000000000000000       0x48 drivers/built-in.o
 .text.blk_list_devices
                0x0000000000000000       0x78 drivers/built-in.o
 .text.blk_print_device_num
                0x0000000000000000       0x48 drivers/built-in.o
 .text.blk_show_device
                0x0000000000000000       0x7c drivers/built-in.o
 .text.blk_first_device
                0x0000000000000000       0x70 drivers/built-in.o
 .text.blk_next_device
                0x0000000000000000       0x64 drivers/built-in.o
 .text.blk_get_devnum_by_type
                0x0000000000000000       0x2c drivers/built-in.o
 .text.blk_read_devnum
                0x0000000000000000       0x54 drivers/built-in.o
 .text.blk_dwrite
                0x0000000000000000       0x20 drivers/built-in.o
 .text.blk_write_devnum
                0x0000000000000000       0x54 drivers/built-in.o
 .text.blk_derase
                0x0000000000000000       0x20 drivers/built-in.o
 .text.blk_erase_devnum
                0x0000000000000000       0x44 drivers/built-in.o
 .text.blk_prepare_device
                0x0000000000000000       0x1c drivers/built-in.o
 .text.blk_get_from_parent
                0x0000000000000000       0x5c drivers/built-in.o
 .text.blk_unbind_all
                0x0000000000000000       0x68 drivers/built-in.o
 .text.reset_request
                0x0000000000000000       0x14 drivers/built-in.o
 .text.reset_free
                0x0000000000000000       0x14 drivers/built-in.o
 .text.reset_assert_bulk
                0x0000000000000000       0x48 drivers/built-in.o
 .text.reset_deassert_bulk
                0x0000000000000000       0x48 drivers/built-in.o
 .text.reset_release_all
                0x0000000000000000       0x68 drivers/built-in.o
 .text.reset_get_bulk
                0x0000000000000000       0xc0 drivers/built-in.o
 .rodata.clks_probe.str1.1
                0x0000000000000000       0x17 drivers/built-in.o
 .rodata.devfdt_get_addr_name.str1.1
                0x0000000000000000        0xa drivers/built-in.o
 .rodata.dm_dump_all.str1.1
                0x0000000000000000       0x8c drivers/built-in.o
 .rodata.dm_dump_uclass.str1.1
                0x0000000000000000       0x44 drivers/built-in.o
 .rodata.show_devices.str1.1
                0x0000000000000000       0x45 drivers/built-in.o
 .rodata.of_alias_dump.str1.1
                0x0000000000000000       0x43 drivers/built-in.o
 .rodata.of_alias_scan.str1.1
                0x0000000000000000       0x46 drivers/built-in.o
 .rodata.of_read_fmap_entry.str1.1
                0x0000000000000000       0x1b drivers/built-in.o
 .rodata.__func__.7451
                0x0000000000000000       0x10 drivers/built-in.o
 .rodata.ofnode_decode_display_timing.str1.1
                0x0000000000000000       0xca drivers/built-in.o
 .rodata.ofnode_get_chosen_prop.str1.1
                0x0000000000000000        0x8 drivers/built-in.o
 .rodata.ofnode_read_resource.str1.1
                0x0000000000000000        0x4 drivers/built-in.o
 .rodata.ofnode_read_resource_byname.str1.1
                0x0000000000000000        0xa drivers/built-in.o
 .rodata.ofnode_read_u64.str1.1
                0x0000000000000000       0x13 drivers/built-in.o
 .rodata.scmi_linux_errmap
                0x0000000000000000       0x50 drivers/built-in.o
 .rodata.scmi_dt_get_smt_buffer.str1.1
                0x0000000000000000       0x26 drivers/built-in.o
 .rodata.scmi_read_resp_from_smt.str1.1
                0x0000000000000000       0x53 drivers/built-in.o
 .rodata.mmc_hwpart_config.str1.1
                0x0000000000000000      0x19f drivers/built-in.o
 .rodata.print_mmc_devices.str1.1
                0x0000000000000000       0x1c drivers/built-in.o
 .rodata.board_mmc_dm_reinit.str1.1
                0x0000000000000000        0x6 drivers/built-in.o
 .rodata.mmc_rpmb_read.str1.1
                0x0000000000000000       0x53 drivers/built-in.o
 .rodata.mmc_rpmb_response.str1.1
                0x0000000000000000       0x22 drivers/built-in.o
 .rodata.mmc_rpmb_write.str1.1
                0x0000000000000000       0x20 drivers/built-in.o
 .rodata.rpmb_err_msg
                0x0000000000000000       0x40 drivers/built-in.o
 .rodata.pinctrl_decode_pin_config.str1.1
                0x0000000000000000       0x1c drivers/built-in.o
 .rodata.pinctrl_generic_set_state_subnode.str1.1
                0x0000000000000000       0x15 drivers/built-in.o
 .rodata.spi_find_chip_select.str1.1
                0x0000000000000000       0x18 drivers/built-in.o
 .rodata.spi_get_bus_and_cs.str1.1
                0x0000000000000000       0x64 drivers/built-in.o
 .rodata.dm_gpio_get_open_drain.str1.1
                0x0000000000000000        0xf drivers/built-in.o
 .rodata.dm_gpio_set_open_drain.str1.1
                0x0000000000000000        0xf drivers/built-in.o
 .rodata.gpio_direction_input.str1.1
                0x0000000000000000        0xa drivers/built-in.o
 .rodata.gpio_direction_output.str1.1
                0x0000000000000000        0xb drivers/built-in.o
 .rodata.gpio_function
                0x0000000000000000       0x28 drivers/built-in.o
 .rodata.gpio_get_status.str1.1
                0x0000000000000000       0x19 drivers/built-in.o
 .rodata.gpio_hog_probe_all.str1.1
                0x0000000000000000       0x23 drivers/built-in.o
 .rodata.__func__.8738
                0x0000000000000000       0x11 drivers/built-in.o
 .rodata.mtd_arg_off.str1.1
                0x0000000000000000       0x38 drivers/built-in.o
 .rodata.mtd_arg_off_size.str1.1
                0x0000000000000000       0x71 drivers/built-in.o
 .rodata.mtd_search_alternate_name.str1.1
                0x0000000000000000        0x7 drivers/built-in.o
 .rodata.__func__.9291
                0x0000000000000000        0xf drivers/built-in.o
 .rodata.mtd_part_parse.str1.1
                0x0000000000000000       0x34 drivers/built-in.o
 .rodata.blk_list_devices.str1.1
                0x0000000000000000        0xc drivers/built-in.o
 .rodata.blk_print_device_num.str1.1
                0x0000000000000000       0x11 drivers/built-in.o
 .rodata.blk_show_device.str1.1
                0x0000000000000000       0x1d drivers/built-in.o
 .rodata.if_type_uclass_id
                0x0000000000000000       0x44 drivers/built-in.o
 .rodata.if_typename_str
                0x0000000000000000       0x88 drivers/built-in.o
 .data          0x0000000000000000        0x0 drivers/built-in.o
 .bss           0x0000000000000000        0x0 drivers/built-in.o
 .bss.of_chosen
                0x0000000000000000        0x8 drivers/built-in.o
 .bss.of_stdout
                0x0000000000000000        0x8 drivers/built-in.o
 .bss.of_stdout_options
                0x0000000000000000        0x8 drivers/built-in.o
 .bss.mtd_table
                0x0000000000000000      0x100 drivers/built-in.o
 .text          0x0000000000000000        0x0 fs/built-in.o
 .text.fs_devread
                0x0000000000000000      0x250 fs/built-in.o
 .rodata.__func__.5785
                0x0000000000000000        0xb fs/built-in.o
 .rodata.fs_devread.str1.1
                0x0000000000000000       0x98 fs/built-in.o
 .data          0x0000000000000000        0x0 fs/built-in.o
 .bss           0x0000000000000000        0x0 fs/built-in.o
 .comment       0x0000000000000000       0x2e fs/built-in.o
 .note.GNU-stack
                0x0000000000000000        0x0 fs/built-in.o
 .debug_aranges
                0x0000000000000000       0x30 fs/built-in.o
 .debug_info    0x0000000000000000     0x106f fs/built-in.o
 .debug_abbrev  0x0000000000000000      0x2c7 fs/built-in.o
 .debug_line    0x0000000000000000      0x20e fs/built-in.o
 .debug_frame   0x0000000000000000       0x60 fs/built-in.o
 .debug_str     0x0000000000000000      0xc78 fs/built-in.o
 .debug_loc     0x0000000000000000      0x80f fs/built-in.o
 .debug_ranges  0x0000000000000000       0xb0 fs/built-in.o

Memory Configuration

Name             Origin             Length             Attributes
.sram            0x0000000000000000 0x0000000000040000
.sdram           0x0000000003fe0000 0x0000000000010000
*default*        0x0000000000000000 0xffffffffffffffff

Linker script and memory map


.text           0x0000000000000000    0x23388
                0x0000000000000000                . = ALIGN (0x8)
 *(.__image_copy_start)
 .__image_copy_start
                0x0000000000000000        0x0 arch/arm/lib/built-in.o
                0x0000000000000000                __image_copy_start
 arch/arm/cpu/armv8/start.o(.text*)
 .text          0x0000000000000000      0x120 arch/arm/cpu/armv8/start.o
                0x0000000000000000                _start
                0x0000000000000008                _TEXT_BASE
                0x0000000000000010                _end_ofs
                0x0000000000000018                _bss_start_ofs
                0x0000000000000020                _bss_end_ofs
                0x000000000000002c                save_boot_params_ret
                0x0000000000000094                apply_core_errata
                0x00000000000000b8                lowlevel_init
                0x00000000000000c4                smp_kick_all_cpus
                0x00000000000000d0                c_runtime_cpu_setup
 *(.text*)
 .text.fit_image_get_uncomp_digest
                0x0000000000000120       0x84 arch/arm/mach-rockchip/built-in.o
 .text.board_fit_image_post_process
                0x00000000000001a4      0x15c arch/arm/mach-rockchip/built-in.o
                0x00000000000001a4                board_fit_image_post_process
 .text.fit_board_verify_required_sigs
                0x0000000000000300       0x68 arch/arm/mach-rockchip/built-in.o
                0x0000000000000300                fit_board_verify_required_sigs
 .text.board_debug_uart_init
                0x0000000000000368       0x30 arch/arm/mach-rockchip/built-in.o
                0x0000000000000368                board_debug_uart_init
 .text.rockchip_stimer_init
                0x0000000000000398       0x94 arch/arm/mach-rockchip/built-in.o
                0x0000000000000398                rockchip_stimer_init
 .text.spl_board_sd_iomux_save
                0x000000000000042c       0x4c arch/arm/mach-rockchip/built-in.o
                0x000000000000042c                spl_board_sd_iomux_save
 .text.spl_board_storages_fixup
                0x0000000000000478       0xa0 arch/arm/mach-rockchip/built-in.o
                0x0000000000000478                spl_board_storages_fixup
 .text.arch_cpu_init
                0x0000000000000518      0x30c arch/arm/mach-rockchip/built-in.o
                0x0000000000000518                arch_cpu_init
 .text.spl_fit_standalone_release
                0x0000000000000824       0xe4 arch/arm/mach-rockchip/built-in.o
                0x0000000000000824                spl_fit_standalone_release
 .text.rockchip_get_scmi_clk
                0x0000000000000908       0x14 arch/arm/mach-rockchip/built-in.o
                0x0000000000000908                rockchip_get_scmi_clk
 .text.save_boot_params
                0x000000000000091c       0xa4 arch/arm/mach-rockchip/built-in.o
                0x000000000000091c                save_boot_params
 .text.board_spl_was_booted_from
                0x00000000000009c0       0x38 arch/arm/mach-rockchip/built-in.o
                0x00000000000009c0                board_spl_was_booted_from
 .text.spl_boot_device
                0x00000000000009f8        0x8 arch/arm/mach-rockchip/built-in.o
                0x00000000000009f8                spl_boot_device
 .text.spl_boot_mode
                0x0000000000000a00        0x8 arch/arm/mach-rockchip/built-in.o
                0x0000000000000a00                spl_boot_mode
 .text.rk_board_init_f
                0x0000000000000a08        0x8 arch/arm/mach-rockchip/built-in.o
                0x0000000000000a08                rk_board_init_f
 .text.board_init_f
                0x0000000000000a10       0x70 arch/arm/mach-rockchip/built-in.o
                0x0000000000000a10                board_init_f
 .text.board_fit_config_name_match
                0x0000000000000a80        0x8 arch/arm/mach-rockchip/built-in.o
                0x0000000000000a80                board_fit_config_name_match
 .text.board_init_f_boot_flags
                0x0000000000000a88       0x80 arch/arm/mach-rockchip/built-in.o
                0x0000000000000a88                board_init_f_boot_flags
 .text.rk_spl_board_init
                0x0000000000000b08        0x8 arch/arm/mach-rockchip/built-in.o
                0x0000000000000b08                rk_spl_board_init
 .text.spl_board_init
                0x0000000000000b10        0x4 arch/arm/mach-rockchip/built-in.o
                0x0000000000000b10                spl_board_init
 .text.spl_perform_fixups
                0x0000000000000b14        0x8 arch/arm/mach-rockchip/built-in.o
                0x0000000000000b14                spl_perform_fixups
 .text.spl_hang_reset
                0x0000000000000b1c       0x54 arch/arm/mach-rockchip/built-in.o
                0x0000000000000b1c                spl_hang_reset
 .text.spl_board_prepare_for_jump
                0x0000000000000b70       0x18 arch/arm/mach-rockchip/built-in.o
                0x0000000000000b70                spl_board_prepare_for_jump
 .text.board_boot_order
                0x0000000000000b88      0x1f4 arch/arm/mach-rockchip/built-in.o
                0x0000000000000b88                board_boot_order
 .text.js_hash  0x0000000000000d7c       0x50 arch/arm/mach-rockchip/built-in.o
 .text.atags_bad_magic
                0x0000000000000dcc       0x64 arch/arm/mach-rockchip/built-in.o
                0x0000000000000dcc                atags_bad_magic
 .text.atags_overflow
                0x0000000000000e30       0x54 arch/arm/mach-rockchip/built-in.o
                0x0000000000000e30                atags_overflow
 .text.atags_set_tag
                0x0000000000000e84      0x178 arch/arm/mach-rockchip/built-in.o
                0x0000000000000e84                atags_set_tag
 .text.atags_get_tag
                0x0000000000000ffc       0xa0 arch/arm/mach-rockchip/built-in.o
                0x0000000000000ffc                atags_get_tag
 .text.atags_set_bootdev_by_spl_bootdevice
                0x000000000000109c       0x5c arch/arm/mach-rockchip/built-in.o
                0x000000000000109c                atags_set_bootdev_by_spl_bootdevice
 .text.param_parse_pstore
                0x00000000000010f8       0x8c arch/arm/mach-rockchip/built-in.o
                0x00000000000010f8                param_parse_pstore
 .text.putc_to_ram
                0x0000000000001184       0x50 arch/arm/mach-rockchip/built-in.o
                0x0000000000001184                putc_to_ram
 *fill*         0x00000000000011d4      0x62c 
 .text          0x0000000000001800      0x544 arch/arm/cpu/armv8/built-in.o
                0x0000000000001800                vectors
                0x0000000000001cec                __arm_smccc_smc
                0x0000000000001d18                __arm_smccc_hvc
 .text.get_tbclk
                0x0000000000001d44        0x8 arch/arm/cpu/armv8/built-in.o
                0x0000000000001d44                get_tbclk
 .text.get_ticks
                0x0000000000001d4c       0x10 arch/arm/cpu/armv8/built-in.o
                0x0000000000001d4c                get_ticks
 .text.count_required_pts
                0x0000000000001d5c       0xf8 arch/arm/cpu/armv8/built-in.o
 .text.create_table
                0x0000000000001e54       0x70 arch/arm/cpu/armv8/built-in.o
 .text.split_block
                0x0000000000001ec4       0xa0 arch/arm/cpu/armv8/built-in.o
 .text.get_tcr  0x0000000000001f64       0xe8 arch/arm/cpu/armv8/built-in.o
                0x0000000000001f64                get_tcr
 .text.find_pte
                0x000000000000204c       0x94 arch/arm/cpu/armv8/built-in.o
 .text.get_page_table_size
                0x00000000000020e0       0x4c arch/arm/cpu/armv8/built-in.o
                0x00000000000020e0                get_page_table_size
 .text.setup_pgtables
                0x000000000000212c      0x17c arch/arm/cpu/armv8/built-in.o
                0x000000000000212c                setup_pgtables
 .text.mmu_setup
                0x00000000000022a8      0x13c arch/arm/cpu/armv8/built-in.o
                0x00000000000022a8                mmu_setup
 .text.invalidate_dcache_all
                0x00000000000023e4       0x14 arch/arm/cpu/armv8/built-in.o
                0x00000000000023e4                invalidate_dcache_all
 .text.flush_dcache_all
                0x00000000000023f8       0x14 arch/arm/cpu/armv8/built-in.o
                0x00000000000023f8                flush_dcache_all
 .text.invalidate_dcache_range
                0x000000000000240c        0x4 arch/arm/cpu/armv8/built-in.o
                0x000000000000240c                invalidate_dcache_range
 .text.flush_dcache_range
                0x0000000000002410        0x4 arch/arm/cpu/armv8/built-in.o
                0x0000000000002410                flush_dcache_range
 .text.dcache_enable
                0x0000000000002414      0x110 arch/arm/cpu/armv8/built-in.o
                0x0000000000002414                dcache_enable
 .text.dcache_disable
                0x0000000000002524       0x84 arch/arm/cpu/armv8/built-in.o
                0x0000000000002524                dcache_disable
 .text.icache_disable
                0x00000000000025a8       0x64 arch/arm/cpu/armv8/built-in.o
                0x00000000000025a8                icache_disable
 .text.invalidate_icache_all
                0x000000000000260c       0x14 arch/arm/cpu/armv8/built-in.o
                0x000000000000260c                invalidate_icache_all
 .text.__asm_dcache_level
                0x0000000000002620       0x64 arch/arm/cpu/armv8/built-in.o
                0x0000000000002620                __asm_dcache_level
 .text.__asm_dcache_all
                0x0000000000002684       0x60 arch/arm/cpu/armv8/built-in.o
                0x0000000000002684                __asm_dcache_all
 .text.__asm_flush_dcache_all
                0x00000000000026e4        0x8 arch/arm/cpu/armv8/built-in.o
                0x00000000000026e4                __asm_flush_dcache_all
 .text.__asm_invalidate_dcache_all
                0x00000000000026ec        0x8 arch/arm/cpu/armv8/built-in.o
                0x00000000000026ec                __asm_invalidate_dcache_all
 .text.__asm_flush_dcache_range
                0x00000000000026f4       0x3c arch/arm/cpu/armv8/built-in.o
                0x00000000000026f4                __asm_flush_dcache_range
 .text.__asm_invalidate_dcache_range
                0x0000000000002730       0x34 arch/arm/cpu/armv8/built-in.o
                0x0000000000002730                __asm_invalidate_dcache_range
 .text.__asm_invalidate_icache_all
                0x0000000000002764        0xc arch/arm/cpu/armv8/built-in.o
                0x0000000000002764                __asm_invalidate_icache_all
 .text.__asm_invalidate_l3_dcache
                0x0000000000002770        0x8 arch/arm/cpu/armv8/built-in.o
                0x0000000000002770                __asm_invalidate_l3_dcache
 .text.__asm_flush_l3_dcache
                0x0000000000002778        0x8 arch/arm/cpu/armv8/built-in.o
                0x0000000000002778                __asm_flush_l3_dcache
 .text.__asm_invalidate_l3_icache
                0x0000000000002780        0x8 arch/arm/cpu/armv8/built-in.o
                0x0000000000002780                __asm_invalidate_l3_icache
 .text.__asm_invalidate_tlb_all
                0x0000000000002788       0x4c arch/arm/cpu/armv8/built-in.o
                0x0000000000002788                __asm_invalidate_tlb_all
 *fill*         0x00000000000027d4        0x4 
 .text          0x00000000000027d8      0x2c0 arch/arm/lib/built-in.o
                0x00000000000027d8                _main
                0x00000000000028c0                relocate_code
                0x0000000000002994                gic_init_secure
                0x00000000000029c8                gic_init_secure_percpu
                0x0000000000002a74                gic_kick_secondary_cpus
                0x0000000000002a84                gic_wait_for_interrupt
 .text.setjmp   0x0000000000002a98       0x28 arch/arm/lib/built-in.o
                0x0000000000002a98                setjmp
 .text.longjmp  0x0000000000002ac0       0x40 arch/arm/lib/built-in.o
                0x0000000000002ac0                longjmp
 .text.disable_interrupts
                0x0000000000002b00        0x8 arch/arm/lib/built-in.o
                0x0000000000002b00                disable_interrupts
 .text.show_regs
                0x0000000000002b08       0xc8 arch/arm/lib/built-in.o
                0x0000000000002b08                show_regs
 .text.do_bad_sync
                0x0000000000002bd0       0x30 arch/arm/lib/built-in.o
                0x0000000000002bd0                do_bad_sync
 .text.do_bad_irq
                0x0000000000002c00       0x30 arch/arm/lib/built-in.o
                0x0000000000002c00                do_bad_irq
 .text.do_bad_fiq
                0x0000000000002c30       0x30 arch/arm/lib/built-in.o
                0x0000000000002c30                do_bad_fiq
 .text.do_bad_error
                0x0000000000002c60       0x30 arch/arm/lib/built-in.o
                0x0000000000002c60                do_bad_error
 .text.do_sync  0x0000000000002c90       0x30 arch/arm/lib/built-in.o
                0x0000000000002c90                do_sync
 .text.do_irq   0x0000000000002cc0       0x30 arch/arm/lib/built-in.o
                0x0000000000002cc0                do_irq
 .text.do_fiq   0x0000000000002cf0       0x30 arch/arm/lib/built-in.o
                0x0000000000002cf0                do_fiq
 .text.do_error
                0x0000000000002d20       0x30 arch/arm/lib/built-in.o
                0x0000000000002d20                do_error
 .text.dump_core_stack
                0x0000000000002d50       0xe0 arch/arm/lib/built-in.o
                0x0000000000002d50                dump_core_stack
 .text.flush_cache
                0x0000000000002e30        0x8 arch/arm/lib/built-in.o
                0x0000000000002e30                flush_cache
 .text.show_boot_progress
                0x0000000000002e38        0x4 common/spl/built-in.o
                0x0000000000002e38                show_boot_progress
 .text.spl_common_init.constprop.4
                0x0000000000002e3c       0x7c common/spl/built-in.o
 .text.spl_next_stage
                0x0000000000002eb8        0xc common/spl/built-in.o
                0x0000000000002eb8                spl_next_stage
 .text.spl_board_prepare_for_boot
                0x0000000000002ec4        0x4 common/spl/built-in.o
                0x0000000000002ec4                spl_board_prepare_for_boot
 .text.jump_to_image_no_args
                0x0000000000002ec8       0x10 common/spl/built-in.o
                0x0000000000002ec8                jump_to_image_no_args
 .text.spl_set_bd
                0x0000000000002ed8       0x18 common/spl/built-in.o
                0x0000000000002ed8                spl_set_bd
 .text.spl_early_init
                0x0000000000002ef0       0x24 common/spl/built-in.o
                0x0000000000002ef0                spl_early_init
 .text.spl_init
                0x0000000000002f14       0x44 common/spl/built-in.o
                0x0000000000002f14                spl_init
 .text.preloader_console_init
                0x0000000000002f58       0x30 common/spl/built-in.o
                0x0000000000002f58                preloader_console_init
 .text.spl_relocate_stack_gd
                0x0000000000002f88        0x8 common/spl/built-in.o
                0x0000000000002f88                spl_relocate_stack_gd
 .text.spl_cleanup_before_jump
                0x0000000000002f90       0x64 common/spl/built-in.o
                0x0000000000002f90                spl_cleanup_before_jump
 .text.board_init_r
                0x0000000000002ff4      0x20c common/spl/built-in.o
                0x0000000000002ff4                board_init_r
 .text.spl_fit_get_image_name.isra.0
                0x0000000000003200      0x118 common/spl/built-in.o
 .text.spl_fit_get_image_node
                0x0000000000003318       0x50 common/spl/built-in.o
 .text.spl_load_fit_image
                0x0000000000003368      0x2e8 common/spl/built-in.o
 .text.spl_fit_append_fdt
                0x0000000000003650      0x104 common/spl/built-in.o
 .text.spl_load_simple_fit
                0x0000000000003754      0x4cc common/spl/built-in.o
                0x0000000000003754                spl_load_simple_fit
 .text.h_spl_load_read
                0x0000000000003c20        0x8 common/spl/built-in.o
 .text.mmc_load_image_raw_sector
                0x0000000000003c28       0x90 common/spl/built-in.o
 .text.spl_mmc_find_device
                0x0000000000003cb8       0xa0 common/spl/built-in.o
                0x0000000000003cb8                spl_mmc_find_device
 .text.spl_mmc_load_image
                0x0000000000003d58      0x170 common/spl/built-in.o
                0x0000000000003d58                spl_mmc_load_image
 .text.mtd_spl_load_read
                0x0000000000003ec8        0x8 common/spl/built-in.o
 .text.find_mtd_device
                0x0000000000003ed0       0x5c common/spl/built-in.o
                0x0000000000003ed0                find_mtd_device
 .text.spl_mtd_load_image
                0x0000000000003f2c       0xf0 common/spl/built-in.o
                0x0000000000003f2c                spl_mtd_load_image
 .text.spl_fit_images_find
                0x000000000000401c       0xa4 common/spl/built-in.o
 .text.bl31_entry
                0x00000000000040c0      0x160 common/spl/built-in.o
                0x00000000000040c0                bl31_entry
 .text.spl_fit_images_get_entry
                0x0000000000004220       0x50 common/spl/built-in.o
                0x0000000000004220                spl_fit_images_get_entry
 .text.spl_invoke_atf
                0x0000000000004270       0x94 common/spl/built-in.o
                0x0000000000004270                spl_invoke_atf
 .text.board_init_f_alloc_reserve
                0x0000000000004304       0x10 common/init/built-in.o
                0x0000000000004304                board_init_f_alloc_reserve
 .text.board_init_f_init_reserve
                0x0000000000004314       0x30 common/init/built-in.o
                0x0000000000004314                board_init_f_init_reserve
 .text.fdt_getprop_u32
                0x0000000000004344       0x38 common/built-in.o
                0x0000000000004344                fdt_getprop_u32
 .text.fit_find_config_node
                0x000000000000437c      0x108 common/built-in.o
                0x000000000000437c                fit_find_config_node
 .text.of_bus_default_map
                0x0000000000004484       0xa4 common/built-in.o
 .text.fdt_support_default_count_cells
                0x0000000000004528       0x70 common/built-in.o
                0x0000000000004528                fdt_support_default_count_cells
 .text.of_bus_default_translate
                0x0000000000004598       0xb8 common/built-in.o
 .text.fdt_find_or_add_subnode
                0x0000000000004650       0x74 common/built-in.o
                0x0000000000004650                fdt_find_or_add_subnode
 .text.fdt_record_loadable
                0x00000000000046c4      0x178 common/built-in.o
                0x00000000000046c4                fdt_record_loadable
 .text.fdt_shrink_to_minimum
                0x000000000000483c       0xc8 common/built-in.o
                0x000000000000483c                fdt_shrink_to_minimum
 .text.fdt_translate_address
                0x0000000000004904      0x28c common/built-in.o
                0x0000000000004904                fdt_translate_address
 .text.fdt_get_base_address
                0x0000000000004b90       0x4c common/built-in.o
                0x0000000000004b90                fdt_get_base_address
 .text.bounce_buffer_start
                0x0000000000004bdc       0x8c common/built-in.o
                0x0000000000004bdc                bounce_buffer_start
 .text.bounce_buffer_stop
                0x0000000000004c68       0x54 common/built-in.o
                0x0000000000004c68                bounce_buffer_stop
 .text.putc     0x0000000000004cbc       0x8c common/built-in.o
                0x0000000000004cbc                putc
 .text.puts     0x0000000000004d48       0x30 common/built-in.o
                0x0000000000004d48                puts
 .text.flushc   0x0000000000004d78       0x14 common/built-in.o
                0x0000000000004d78                flushc
 .text.malloc_simple
                0x0000000000004d8c       0x38 common/built-in.o
                0x0000000000004d8c                malloc_simple
 .text.memalign_simple
                0x0000000000004dc4       0x64 common/built-in.o
                0x0000000000004dc4                memalign_simple
 .text.calloc   0x0000000000004e28       0x34 common/built-in.o
                0x0000000000004e28                calloc
 .text.get_table_entry_id
                0x0000000000004e5c       0x50 common/built-in.o
                0x0000000000004e5c                get_table_entry_id
 .text.genimg_get_os_id
                0x0000000000004eac       0x18 common/built-in.o
                0x0000000000004eac                genimg_get_os_id
 .text.genimg_get_comp_id
                0x0000000000004ec4       0x18 common/built-in.o
                0x0000000000004ec4                genimg_get_comp_id
 .text.fit_image_get_address
                0x0000000000004edc       0x84 common/built-in.o
 .text.hw_fit_calculate_hash
                0x0000000000004f60       0xc4 common/built-in.o
 .text.fit_get_desc
                0x0000000000005024       0x38 common/built-in.o
                0x0000000000005024                fit_get_desc
 .text.fit_get_totalsize
                0x000000000000505c       0x4c common/built-in.o
                0x000000000000505c                fit_get_totalsize
 .text.fit_image_get_os
                0x00000000000050a8       0x4c common/built-in.o
                0x00000000000050a8                fit_image_get_os
 .text.fit_image_get_comp
                0x00000000000050f4       0x4c common/built-in.o
                0x00000000000050f4                fit_image_get_comp
 .text.fit_image_get_load
                0x0000000000005140       0x10 common/built-in.o
                0x0000000000005140                fit_image_get_load
 .text.fit_image_get_comp_addr
                0x0000000000005150       0x10 common/built-in.o
                0x0000000000005150                fit_image_get_comp_addr
 .text.fit_image_get_data_offset
                0x0000000000005160       0x48 common/built-in.o
                0x0000000000005160                fit_image_get_data_offset
 .text.fit_image_get_data_position
                0x00000000000051a8       0x48 common/built-in.o
                0x00000000000051a8                fit_image_get_data_position
 .text.fit_image_get_data_size
                0x00000000000051f0       0x48 common/built-in.o
                0x00000000000051f0                fit_image_get_data_size
 .text.fit_image_get_data
                0x0000000000005238       0xdc common/built-in.o
                0x0000000000005238                fit_image_get_data
 .text.fit_image_hash_get_algo
                0x0000000000005314       0x38 common/built-in.o
                0x0000000000005314                fit_image_hash_get_algo
 .text.fit_image_hash_get_value
                0x000000000000534c       0x50 common/built-in.o
                0x000000000000534c                fit_image_hash_get_value
 .text.fit_image_check_hash
                0x000000000000539c      0x1c8 common/built-in.o
                0x000000000000539c                fit_image_check_hash
 .text.fit_image_verify_with_data
                0x0000000000005564      0x140 common/built-in.o
                0x0000000000005564                fit_image_verify_with_data
 .text.subtract_modulus
                0x00000000000056a4       0x40 lib/built-in.o
 .text.montgomery_mul
                0x00000000000056e4       0xf4 lib/built-in.o
 .text.rsa_convert_big_endian
                0x00000000000057d8       0x2c lib/built-in.o
 .text.rsa_mod_exp_sw
                0x0000000000005804      0x318 lib/built-in.o
                0x0000000000005804                rsa_mod_exp_sw
 .text.fdt_check_header
                0x0000000000005b1c       0x74 lib/built-in.o
                0x0000000000005b1c                fdt_check_header
 .text.fdt_offset_ptr
                0x0000000000005b90       0x74 lib/built-in.o
                0x0000000000005b90                fdt_offset_ptr
 .text.fdt_next_tag
                0x0000000000005c04       0xe0 lib/built-in.o
                0x0000000000005c04                fdt_next_tag
 .text._fdt_check_node_offset
                0x0000000000005ce4       0x40 lib/built-in.o
                0x0000000000005ce4                _fdt_check_node_offset
 .text._fdt_check_prop_offset
                0x0000000000005d24       0x40 lib/built-in.o
                0x0000000000005d24                _fdt_check_prop_offset
 .text.fdt_next_node
                0x0000000000005d64       0xb0 lib/built-in.o
                0x0000000000005d64                fdt_next_node
 .text.fdt_first_subnode
                0x0000000000005e14       0x34 lib/built-in.o
                0x0000000000005e14                fdt_first_subnode
 .text.fdt_next_subnode
                0x0000000000005e48       0x5c lib/built-in.o
                0x0000000000005e48                fdt_next_subnode
 .text._fdt_find_string
                0x0000000000005ea4       0x70 lib/built-in.o
                0x0000000000005ea4                _fdt_find_string
 .text.fdt_strerror
                0x0000000000005f14       0x4c lib/built-in.o
                0x0000000000005f14                fdt_strerror
 .text._fdt_blocks_misordered
                0x0000000000005f60       0x60 lib/built-in.o
 .text._fdt_splice
                0x0000000000005fc0       0x98 lib/built-in.o
 .text._fdt_splice_mem_rsv
                0x0000000000006058       0x6c lib/built-in.o
 .text._fdt_splice_struct
                0x00000000000060c4       0x60 lib/built-in.o
 .text._fdt_add_property
                0x0000000000006124      0x144 lib/built-in.o
 .text._fdt_rw_check_header
                0x0000000000006268       0x6c lib/built-in.o
 .text.fdt_add_mem_rsv
                0x00000000000062d4       0x7c lib/built-in.o
                0x00000000000062d4                fdt_add_mem_rsv
 .text.fdt_del_mem_rsv
                0x0000000000006350       0x70 lib/built-in.o
                0x0000000000006350                fdt_del_mem_rsv
 .text.fdt_setprop_placeholder
                0x00000000000063c0       0xd8 lib/built-in.o
                0x00000000000063c0                fdt_setprop_placeholder
 .text.fdt_setprop
                0x0000000000006498       0x54 lib/built-in.o
                0x0000000000006498                fdt_setprop
 .text.fdt_add_subnode_namelen
                0x00000000000064ec      0x11c lib/built-in.o
                0x00000000000064ec                fdt_add_subnode_namelen
 .text.fdt_add_subnode
                0x0000000000006608       0x44 lib/built-in.o
                0x0000000000006608                fdt_add_subnode
 .text.fdt_address_cells
                0x000000000000664c       0x58 lib/built-in.o
                0x000000000000664c                fdt_address_cells
 .text.fdt_size_cells
                0x00000000000066a4       0x54 lib/built-in.o
                0x00000000000066a4                fdt_size_cells
 .text.fdt_path_next_separator
                0x00000000000066f8       0x68 lib/built-in.o
 .text._nextprop
                0x0000000000006760       0x64 lib/built-in.o
 .text.fdt_string
                0x00000000000067c4       0x14 lib/built-in.o
                0x00000000000067c4                fdt_string
 .text.fdt_get_mem_rsv
                0x00000000000067d8       0x60 lib/built-in.o
                0x00000000000067d8                fdt_get_mem_rsv
 .text.fdt_num_mem_rsv
                0x0000000000006838       0x28 lib/built-in.o
                0x0000000000006838                fdt_num_mem_rsv
 .text.fdt_subnode_offset_namelen
                0x0000000000006860       0xec lib/built-in.o
                0x0000000000006860                fdt_subnode_offset_namelen
 .text.fdt_subnode_offset
                0x000000000000694c       0x44 lib/built-in.o
                0x000000000000694c                fdt_subnode_offset
 .text.fdt_get_name
                0x0000000000006990       0x7c lib/built-in.o
                0x0000000000006990                fdt_get_name
 .text.fdt_first_property_offset
                0x0000000000006a0c       0x38 lib/built-in.o
                0x0000000000006a0c                fdt_first_property_offset
 .text.fdt_next_property_offset
                0x0000000000006a44       0x38 lib/built-in.o
                0x0000000000006a44                fdt_next_property_offset
 .text.fdt_get_property_by_offset
                0x0000000000006a7c       0x64 lib/built-in.o
                0x0000000000006a7c                fdt_get_property_by_offset
 .text.fdt_get_property_namelen
                0x0000000000006ae0       0xd4 lib/built-in.o
                0x0000000000006ae0                fdt_get_property_namelen
 .text.fdt_get_property
                0x0000000000006bb4       0x4c lib/built-in.o
                0x0000000000006bb4                fdt_get_property
 .text.fdt_getprop_namelen
                0x0000000000006c00       0x20 lib/built-in.o
                0x0000000000006c00                fdt_getprop_namelen
 .text.fdt_getprop_by_offset
                0x0000000000006c20       0x54 lib/built-in.o
                0x0000000000006c20                fdt_getprop_by_offset
 .text.fdt_getprop
                0x0000000000006c74       0x4c lib/built-in.o
                0x0000000000006c74                fdt_getprop
 .text.fdt_get_phandle
                0x0000000000006cc0       0x78 lib/built-in.o
                0x0000000000006cc0                fdt_get_phandle
 .text.fdt_get_alias_namelen
                0x0000000000006d38       0x64 lib/built-in.o
                0x0000000000006d38                fdt_get_alias_namelen
 .text.fdt_path_offset_namelen
                0x0000000000006d9c       0xfc lib/built-in.o
                0x0000000000006d9c                fdt_path_offset_namelen
 .text.fdt_path_offset
                0x0000000000006e98       0x34 lib/built-in.o
                0x0000000000006e98                fdt_path_offset
 .text.fdt_get_alias
                0x0000000000006ecc       0x34 lib/built-in.o
                0x0000000000006ecc                fdt_get_alias
 .text.fdt_supernode_atdepth_offset
                0x0000000000006f00       0xc0 lib/built-in.o
                0x0000000000006f00                fdt_supernode_atdepth_offset
 .text.fdt_node_depth
                0x0000000000006fc0       0x34 lib/built-in.o
                0x0000000000006fc0                fdt_node_depth
 .text.fdt_parent_offset
                0x0000000000006ff4       0x44 lib/built-in.o
                0x0000000000006ff4                fdt_parent_offset
 .text.fdt_node_offset_by_phandle
                0x0000000000007038       0x84 lib/built-in.o
                0x0000000000007038                fdt_node_offset_by_phandle
 .text.fdt_stringlist_contains
                0x00000000000070bc       0x98 lib/built-in.o
                0x00000000000070bc                fdt_stringlist_contains
 .text.fdt_stringlist_search
                0x0000000000007154       0xc4 lib/built-in.o
                0x0000000000007154                fdt_stringlist_search
 .text.fdt_stringlist_get
                0x0000000000007218       0xb4 lib/built-in.o
                0x0000000000007218                fdt_stringlist_get
 .text.fdt_node_check_compatible
                0x00000000000072cc       0x4c lib/built-in.o
                0x00000000000072cc                fdt_node_check_compatible
 .text.fdtdec_get_int
                0x0000000000007318       0x40 lib/built-in.o
                0x0000000000007318                fdtdec_get_int
 .text.get_prop_check_min_len
                0x0000000000007358       0x50 lib/built-in.o
 .text.fdtdec_get_is_enabled
                0x00000000000073a8       0x40 lib/built-in.o
                0x00000000000073a8                fdtdec_get_is_enabled
 .text.fdtdec_get_alias_seq
                0x00000000000073e8      0x128 lib/built-in.o
                0x00000000000073e8                fdtdec_get_alias_seq
 .text.fdtdec_prepare_fdt
                0x0000000000007510       0x44 lib/built-in.o
                0x0000000000007510                fdtdec_prepare_fdt
 .text.fdtdec_get_int_array
                0x0000000000007554       0x5c lib/built-in.o
                0x0000000000007554                fdtdec_get_int_array
 .text.fdtdec_parse_phandle_with_args
                0x00000000000075b0      0x150 lib/built-in.o
                0x00000000000075b0                fdtdec_parse_phandle_with_args
 .text.fdtdec_get_number
                0x0000000000007700       0x30 lib/built-in.o
                0x0000000000007700                fdtdec_get_number
 .text.fdtdec_get_addr_size_fixed
                0x0000000000007730       0x94 lib/built-in.o
                0x0000000000007730                fdtdec_get_addr_size_fixed
 .text.fdtdec_get_addr_size_auto_parent
                0x00000000000077c4       0xa8 lib/built-in.o
                0x00000000000077c4                fdtdec_get_addr_size_auto_parent
 .text.fdtdec_get_addr_size_auto_noparent
                0x000000000000786c       0x7c lib/built-in.o
                0x000000000000786c                fdtdec_get_addr_size_auto_noparent
 .text.fdtdec_get_addr_size
                0x00000000000078e8       0x20 lib/built-in.o
                0x00000000000078e8                fdtdec_get_addr_size
 .text.fdtdec_setup
                0x0000000000007908       0x10 lib/built-in.o
                0x0000000000007908                fdtdec_setup
 .text.crc32_no_comp
                0x0000000000007918       0xdc lib/built-in.o
                0x0000000000007918                crc32_no_comp
 .text.crc32    0x00000000000079f4       0x1c lib/built-in.o
                0x00000000000079f4                crc32
 .text.hang     0x0000000000007a10       0x24 lib/built-in.o
                0x0000000000007a10                hang
 .text.kmalloc  0x0000000000007a34       0x4c lib/built-in.o
                0x0000000000007a34                kmalloc
 .text.strncasecmp
                0x0000000000007a80       0x78 lib/built-in.o
                0x0000000000007a80                strncasecmp
 .text.strcasecmp
                0x0000000000007af8        0x8 lib/built-in.o
                0x0000000000007af8                strcasecmp
 .text.strcpy   0x0000000000007b00       0x18 lib/built-in.o
                0x0000000000007b00                strcpy
 .text.strcmp   0x0000000000007b18       0x28 lib/built-in.o
                0x0000000000007b18                strcmp
 .text.strncmp  0x0000000000007b40       0x38 lib/built-in.o
                0x0000000000007b40                strncmp
 .text.strchr   0x0000000000007b78       0x28 lib/built-in.o
                0x0000000000007b78                strchr
 .text.strchrnul
                0x0000000000007ba0       0x20 lib/built-in.o
                0x0000000000007ba0                strchrnul
 .text.strlen   0x0000000000007bc0       0x1c lib/built-in.o
                0x0000000000007bc0                strlen
 .text.strrchr  0x0000000000007bdc       0x40 lib/built-in.o
                0x0000000000007bdc                strrchr
 .text.strnlen  0x0000000000007c1c       0x28 lib/built-in.o
                0x0000000000007c1c                strnlen
 .text.strcspn  0x0000000000007c44       0x38 lib/built-in.o
                0x0000000000007c44                strcspn
 .text.strdup   0x0000000000007c7c       0x4c lib/built-in.o
                0x0000000000007c7c                strdup
 .text.memset   0x0000000000007cc8       0x1c lib/built-in.o
                0x0000000000007cc8                memset
 .text.memcpy   0x0000000000007ce4       0x70 lib/built-in.o
                0x0000000000007ce4                memcpy
 .text.memmove  0x0000000000007d54       0x4c lib/built-in.o
                0x0000000000007d54                memmove
 .text.memcmp   0x0000000000007da0       0x30 lib/built-in.o
                0x0000000000007da0                memcmp
 .text.memchr   0x0000000000007dd0       0x30 lib/built-in.o
                0x0000000000007dd0                memchr
 .text.timer_init
                0x0000000000007e00        0x8 lib/built-in.o
                0x0000000000007e00                timer_init
 .text.get_timer
                0x0000000000007e08       0x3c lib/built-in.o
                0x0000000000007e08                get_timer
 .text.timer_get_us
                0x0000000000007e44       0x38 lib/built-in.o
                0x0000000000007e44                timer_get_us
 .text.__udelay
                0x0000000000007e7c       0x4c lib/built-in.o
                0x0000000000007e7c                __udelay
 .text.udelay   0x0000000000007ec8       0x44 lib/built-in.o
                0x0000000000007ec8                udelay
 .text.uuid_bin_to_str
                0x0000000000007f0c       0xc8 lib/built-in.o
                0x0000000000007f0c                uuid_bin_to_str
 .text.putc_outstr
                0x0000000000007fd4       0x14 lib/built-in.o
 .text.putc_normal
                0x0000000000007fe8        0x8 lib/built-in.o
 .text.div_out  0x0000000000007ff0       0x60 lib/built-in.o
 .text._vprintf
                0x0000000000008050      0x490 lib/built-in.o
 .text.vprintf  0x00000000000084e0       0x44 lib/built-in.o
                0x00000000000084e0                vprintf
 .text.printf   0x0000000000008524       0x8c lib/built-in.o
                0x0000000000008524                printf
 .text.sprintf  0x00000000000085b0       0x90 lib/built-in.o
                0x00000000000085b0                sprintf
 .text.snprintf
                0x0000000000008640       0x94 lib/built-in.o
                0x0000000000008640                snprintf
 .text.panic    0x00000000000086d4       0x7c lib/built-in.o
                0x00000000000086d4                panic
 .text._parse_integer_fixup_radix
                0x0000000000008750       0xac lib/built-in.o
 .text.simple_strtoul
                0x00000000000087fc       0x88 lib/built-in.o
                0x00000000000087fc                simple_strtoul
 .text.trailing_strtoln
                0x0000000000008884       0x78 lib/built-in.o
                0x0000000000008884                trailing_strtoln
 .text.trailing_strtol
                0x00000000000088fc        0x8 lib/built-in.o
                0x00000000000088fc                trailing_strtol
 .text.part_driver_lookup_type
                0x0000000000008904       0xac disk/built-in.o
 .text.part_get_info_by_name_option
                0x00000000000089b0       0xd8 disk/built-in.o
 .text.part_init
                0x0000000000008a88       0x7c disk/built-in.o
                0x0000000000008a88                part_init
 .text.part_get_info
                0x0000000000008b04       0x68 disk/built-in.o
                0x0000000000008b04                part_get_info
 .text.part_get_info_by_name
                0x0000000000008b6c        0x8 disk/built-in.o
                0x0000000000008b6c                part_get_info_by_name
 .text.print_efiname
                0x0000000000008b74       0x5c disk/built-in.o
 .text.part_test_efi
                0x0000000000008bd0       0x50 disk/built-in.o
 .text.validate_gpt_entries
                0x0000000000008c20       0xa8 disk/built-in.o
 .text.validate_gpt_header
                0x0000000000008cc8      0x294 disk/built-in.o
 .text.is_gpt_valid
                0x0000000000008f5c      0x27c disk/built-in.o
 .text.is_pte_valid
                0x00000000000091d8       0x64 disk/built-in.o
 .text.part_get_info_efi
                0x000000000000923c      0x29c disk/built-in.o
                0x000000000000923c                part_get_info_efi
 .text.clk_request
                0x00000000000094d8       0x24 drivers/built-in.o
                0x00000000000094d8                clk_request
 .text.clk_get_by_indexed_prop
                0x00000000000094fc       0xb0 drivers/built-in.o
 .text.clk_get_by_index
                0x00000000000095ac       0x14 drivers/built-in.o
                0x00000000000095ac                clk_get_by_index
 .text.clk_get_by_name
                0x00000000000095c0       0x50 drivers/built-in.o
                0x00000000000095c0                clk_get_by_name
 .text.clk_get_rate
                0x0000000000009610       0x20 drivers/built-in.o
                0x0000000000009610                clk_get_rate
 .text.clk_set_rate
                0x0000000000009630       0x20 drivers/built-in.o
                0x0000000000009630                clk_set_rate
 .text.clk_set_phase
                0x0000000000009650       0x20 drivers/built-in.o
                0x0000000000009650                clk_set_phase
 .text.clk_set_parent
                0x0000000000009670       0x20 drivers/built-in.o
                0x0000000000009670                clk_set_parent
 .text.clk_set_defaults
                0x0000000000009690      0x164 drivers/built-in.o
                0x0000000000009690                clk_set_defaults
 .text.clk_enable
                0x00000000000097f4       0x20 drivers/built-in.o
                0x00000000000097f4                clk_enable
 .text.clk_fixed_rate_ofdata_to_platdata
                0x0000000000009814       0x44 drivers/built-in.o
 .text.clk_fixed_rate_get_rate
                0x0000000000009858       0x2c drivers/built-in.o
 .text.rk3036_pll_get_rate.isra.0
                0x0000000000009884       0xcc drivers/built-in.o
 .text.gcd      0x0000000000009950       0x2c drivers/built-in.o
                0x0000000000009950                gcd
 .text.rockchip_get_pll_settings
                0x000000000000997c      0x318 drivers/built-in.o
 .text.rk3036_pll_set_rate
                0x0000000000009c94      0x1c4 drivers/built-in.o
 .text.rockchip_pll_get_rate
                0x0000000000009e58      0x118 drivers/built-in.o
                0x0000000000009e58                rockchip_pll_get_rate
 .text.rockchip_pll_set_rate
                0x0000000000009f70      0x2d8 drivers/built-in.o
                0x0000000000009f70                rockchip_pll_set_rate
 .text.rk3588_top_get_clk
                0x000000000000a248       0xb4 drivers/built-in.o
 .text.rk3588_adc_get_clk
                0x000000000000a2fc       0x70 drivers/built-in.o
 .text.rk3588_mmc_get_clk
                0x000000000000a36c       0xe8 drivers/built-in.o
 .text.rk3588_clk_scmi_get_rate
                0x000000000000a454      0x214 drivers/built-in.o
 .text.rk3588_clk_scmi_set_rate
                0x000000000000a668      0x3e4 drivers/built-in.o
 .text.rk3588_clk_set_parent
                0x000000000000aa4c      0x1d8 drivers/built-in.o
 .text.rk3588_clk_ofdata_to_platdata
                0x000000000000ac24       0x34 drivers/built-in.o
 .text.rk3588_clk_probe
                0x000000000000ac58      0x1b0 drivers/built-in.o
 .text.rk3588_clk_bind
                0x000000000000ae08       0xa0 drivers/built-in.o
 .text.rk3588_center_get_clk.isra.0
                0x000000000000aea8      0x114 drivers/built-in.o
 .text.rk3588_i2c_get_clk.isra.1
                0x000000000000afbc       0xf8 drivers/built-in.o
 .text.rk3588_spi_get_clk.isra.2
                0x000000000000b0b4       0x7c drivers/built-in.o
 .text.rk3588_pwm_get_clk.isra.3
                0x000000000000b130       0xa8 drivers/built-in.o
 .text.rk3588_clk_set_rate
                0x000000000000b1d8      0x9cc drivers/built-in.o
 .text.rk3588_clk_get_rate
                0x000000000000bba4      0x2b4 drivers/built-in.o
 .text.rk3588_mmc_get_phase
                0x000000000000be58       0xa4 drivers/built-in.o
                0x000000000000be58                rk3588_mmc_get_phase
 .text.rk3588_clk_get_phase
                0x000000000000befc       0x18 drivers/built-in.o
 .text.rk3588_mmc_set_phase
                0x000000000000bf14       0xb8 drivers/built-in.o
                0x000000000000bf14                rk3588_mmc_set_phase
 .text.rk3588_clk_set_phase
                0x000000000000bfcc       0x18 drivers/built-in.o
 .text.device_bind_common.isra.0
                0x000000000000bfe4      0x2c8 drivers/built-in.o
 .text.alloc_priv
                0x000000000000c2ac       0x64 drivers/built-in.o
 .text.device_bind_with_driver_data
                0x000000000000c310       0x14 drivers/built-in.o
                0x000000000000c310                device_bind_with_driver_data
 .text.device_bind_by_name
                0x000000000000c324       0x7c drivers/built-in.o
                0x000000000000c324                device_bind_by_name
 .text.device_probe
                0x000000000000c3a0      0x238 drivers/built-in.o
                0x000000000000c3a0                device_probe
 .text.dev_get_platdata
                0x000000000000c5d8       0x14 drivers/built-in.o
                0x000000000000c5d8                dev_get_platdata
 .text.dev_get_parent_platdata
                0x000000000000c5ec       0x14 drivers/built-in.o
                0x000000000000c5ec                dev_get_parent_platdata
 .text.dev_get_uclass_platdata
                0x000000000000c600       0x14 drivers/built-in.o
                0x000000000000c600                dev_get_uclass_platdata
 .text.dev_get_priv
                0x000000000000c614       0x14 drivers/built-in.o
                0x000000000000c614                dev_get_priv
 .text.dev_get_uclass_priv
                0x000000000000c628       0x14 drivers/built-in.o
                0x000000000000c628                dev_get_uclass_priv
 .text.dev_get_parent_priv
                0x000000000000c63c       0x14 drivers/built-in.o
                0x000000000000c63c                dev_get_parent_priv
 .text.device_find_first_child
                0x000000000000c650       0x28 drivers/built-in.o
                0x000000000000c650                device_find_first_child
 .text.device_find_next_child
                0x000000000000c678       0x30 drivers/built-in.o
                0x000000000000c678                device_find_next_child
 .text.dev_get_parent
                0x000000000000c6a8        0x8 drivers/built-in.o
                0x000000000000c6a8                dev_get_parent
 .text.dev_get_driver_data
                0x000000000000c6b0        0x8 drivers/built-in.o
                0x000000000000c6b0                dev_get_driver_data
 .text.device_get_uclass_id
                0x000000000000c6b8       0x10 drivers/built-in.o
                0x000000000000c6b8                device_get_uclass_id
 .text.device_set_name_alloced
                0x000000000000c6c8       0x10 drivers/built-in.o
                0x000000000000c6c8                device_set_name_alloced
 .text.device_set_name
                0x000000000000c6d8       0x44 drivers/built-in.o
                0x000000000000c6d8                device_set_name
 .text.device_is_compatible
                0x000000000000c71c       0x6c drivers/built-in.o
                0x000000000000c71c                device_is_compatible
 .text.devfdt_get_addr_index
                0x000000000000c788       0x78 drivers/built-in.o
                0x000000000000c788                devfdt_get_addr_index
 .text.devfdt_get_addr_size_index
                0x000000000000c800       0x48 drivers/built-in.o
                0x000000000000c800                devfdt_get_addr_size_index
 .text.lists_driver_lookup_name
                0x000000000000c848       0x78 drivers/built-in.o
                0x000000000000c848                lists_driver_lookup_name
 .text.lists_uclass_lookup
                0x000000000000c8c0       0x48 drivers/built-in.o
                0x000000000000c8c0                lists_uclass_lookup
 .text.lists_bind_drivers
                0x000000000000c908       0x90 drivers/built-in.o
                0x000000000000c908                lists_bind_drivers
 .text.device_bind_driver_to_node
                0x000000000000c998       0x68 drivers/built-in.o
                0x000000000000c998                device_bind_driver_to_node
 .text.device_bind_driver
                0x000000000000ca00       0x24 drivers/built-in.o
                0x000000000000ca00                device_bind_driver
 .text.lists_bind_fdt
                0x000000000000ca24      0x154 drivers/built-in.o
                0x000000000000ca24                lists_bind_fdt
 .text.dm_scan_fdt_node
                0x000000000000cb78      0x11c drivers/built-in.o
 .text.dm_root  0x000000000000cc94       0x18 drivers/built-in.o
                0x000000000000cc94                dm_root
 .text.dm_get_translation_offset
                0x000000000000ccac       0x1c drivers/built-in.o
                0x000000000000ccac                dm_get_translation_offset
 .text.dm_init  0x000000000000ccc8       0x60 drivers/built-in.o
                0x000000000000ccc8                dm_init
 .text.dm_scan_platdata
                0x000000000000cd28       0x24 drivers/built-in.o
                0x000000000000cd28                dm_scan_platdata
 .text.dm_scan_fdt_dev
                0x000000000000cd4c       0x40 drivers/built-in.o
                0x000000000000cd4c                dm_scan_fdt_dev
 .text.dm_scan_fdt
                0x000000000000cd8c       0x18 drivers/built-in.o
                0x000000000000cd8c                dm_scan_fdt
 .text.dm_extended_scan_fdt
                0x000000000000cda4       0x60 drivers/built-in.o
                0x000000000000cda4                dm_extended_scan_fdt
 .text.dm_scan_other
                0x000000000000ce04        0x8 drivers/built-in.o
                0x000000000000ce04                dm_scan_other
 .text.dm_init_and_scan
                0x000000000000ce0c       0x54 drivers/built-in.o
                0x000000000000ce0c                dm_init_and_scan
 .text.uclass_find
                0x000000000000ce60       0x4c drivers/built-in.o
                0x000000000000ce60                uclass_find
 .text.uclass_get
                0x000000000000ceac      0x108 drivers/built-in.o
                0x000000000000ceac                uclass_get
 .text.uclass_find_device
                0x000000000000cfb4       0x78 drivers/built-in.o
                0x000000000000cfb4                uclass_find_device
 .text.uclass_find_first_device
                0x000000000000d02c       0x48 drivers/built-in.o
                0x000000000000d02c                uclass_find_first_device
 .text.uclass_find_next_device
                0x000000000000d074       0x2c drivers/built-in.o
                0x000000000000d074                uclass_find_next_device
 .text.uclass_find_device_by_seq
                0x000000000000d0a0       0x90 drivers/built-in.o
                0x000000000000d0a0                uclass_find_device_by_seq
 .text.uclass_find_device_by_of_offset
                0x000000000000d130       0x78 drivers/built-in.o
                0x000000000000d130                uclass_find_device_by_of_offset
 .text.uclass_find_device_by_ofnode
                0x000000000000d1a8       0x90 drivers/built-in.o
                0x000000000000d1a8                uclass_find_device_by_ofnode
 .text.uclass_get_device_by_driver
                0x000000000000d238       0x7c drivers/built-in.o
                0x000000000000d238                uclass_get_device_by_driver
 .text.uclass_get_device_tail
                0x000000000000d2b4       0x40 drivers/built-in.o
                0x000000000000d2b4                uclass_get_device_tail
 .text.uclass_get_device
                0x000000000000d2f4       0x38 drivers/built-in.o
                0x000000000000d2f4                uclass_get_device
 .text.uclass_get_device_by_seq
                0x000000000000d32c       0x68 drivers/built-in.o
                0x000000000000d32c                uclass_get_device_by_seq
 .text.uclass_get_device_by_of_offset
                0x000000000000d394       0x38 drivers/built-in.o
                0x000000000000d394                uclass_get_device_by_of_offset
 .text.uclass_get_device_by_ofnode
                0x000000000000d3cc       0x38 drivers/built-in.o
                0x000000000000d3cc                uclass_get_device_by_ofnode
 .text.uclass_get_device_by_phandle_id
                0x000000000000d404       0x98 drivers/built-in.o
                0x000000000000d404                uclass_get_device_by_phandle_id
 .text.uclass_get_device_by_phandle
                0x000000000000d49c       0xc0 drivers/built-in.o
                0x000000000000d49c                uclass_get_device_by_phandle
 .text.uclass_first_device
                0x000000000000d55c       0x44 drivers/built-in.o
                0x000000000000d55c                uclass_first_device
 .text.uclass_first_device_err
                0x000000000000d5a0       0x34 drivers/built-in.o
                0x000000000000d5a0                uclass_first_device_err
 .text.uclass_next_device
                0x000000000000d5d4       0x44 drivers/built-in.o
                0x000000000000d5d4                uclass_next_device
 .text.uclass_bind_device
                0x000000000000d618       0x90 drivers/built-in.o
                0x000000000000d618                uclass_bind_device
 .text.uclass_resolve_seq
                0x000000000000d6a8       0x98 drivers/built-in.o
                0x000000000000d6a8                uclass_resolve_seq
 .text.uclass_pre_probe_device
                0x000000000000d740       0x64 drivers/built-in.o
                0x000000000000d740                uclass_pre_probe_device
 .text.uclass_post_probe_device
                0x000000000000d7a4       0x1c drivers/built-in.o
                0x000000000000d7a4                uclass_post_probe_device
 .text.dm_fdt_pre_reloc
                0x000000000000d7c0       0x5c drivers/built-in.o
                0x000000000000d7c0                dm_fdt_pre_reloc
 .text.simple_bus_post_bind
                0x000000000000d81c       0x5c drivers/built-in.o
 .text.simple_bus_translate
                0x000000000000d878       0x50 drivers/built-in.o
                0x000000000000d878                simple_bus_translate
 .text.regmap_init_mem
                0x000000000000d8c8      0x13c drivers/built-in.o
                0x000000000000d8c8                regmap_init_mem
 .text.regmap_get_range
                0x000000000000da04       0x24 drivers/built-in.o
                0x000000000000da04                regmap_get_range
 .text.regmap_read
                0x000000000000da28       0x1c drivers/built-in.o
                0x000000000000da28                regmap_read
 .text.regmap_write
                0x000000000000da44       0x18 drivers/built-in.o
                0x000000000000da44                regmap_write
 .text.syscon_pre_probe
                0x000000000000da5c       0x28 drivers/built-in.o
 .text.syscon_get_regmap
                0x000000000000da84       0x3c drivers/built-in.o
                0x000000000000da84                syscon_get_regmap
 .text.syscon_get_by_driver_data
                0x000000000000dac0       0x74 drivers/built-in.o
                0x000000000000dac0                syscon_get_by_driver_data
 .text.syscon_get_regmap_by_driver_data
                0x000000000000db34       0x30 drivers/built-in.o
                0x000000000000db34                syscon_get_regmap_by_driver_data
 .text.syscon_get_first_range
                0x000000000000db64       0x28 drivers/built-in.o
                0x000000000000db64                syscon_get_first_range
 .text.of_find_property
                0x000000000000db8c       0x78 drivers/built-in.o
                0x000000000000db8c                of_find_property
 .text.of_find_property_value_of_size
                0x000000000000dc04       0x54 drivers/built-in.o
 .text.of_find_all_nodes
                0x000000000000dc58       0x34 drivers/built-in.o
                0x000000000000dc58                of_find_all_nodes
 .text.of_get_property
                0x000000000000dc8c       0x24 drivers/built-in.o
                0x000000000000dc8c                of_get_property
 .text.of_n_addr_cells
                0x000000000000dcb0       0x5c drivers/built-in.o
                0x000000000000dcb0                of_n_addr_cells
 .text.of_n_size_cells
                0x000000000000dd0c       0x5c drivers/built-in.o
                0x000000000000dd0c                of_n_size_cells
 .text.of_simple_addr_cells
                0x000000000000dd68       0x34 drivers/built-in.o
                0x000000000000dd68                of_simple_addr_cells
 .text.of_simple_size_cells
                0x000000000000dd9c       0x34 drivers/built-in.o
                0x000000000000dd9c                of_simple_size_cells
 .text.of_device_is_compatible
                0x000000000000ddd0      0x110 drivers/built-in.o
                0x000000000000ddd0                of_device_is_compatible
 .text.of_device_is_available
                0x000000000000dee0       0x60 drivers/built-in.o
                0x000000000000dee0                of_device_is_available
 .text.of_get_parent
                0x000000000000df40       0x14 drivers/built-in.o
                0x000000000000df40                of_get_parent
 .text.of_find_node_opts_by_path
                0x000000000000df54      0x19c drivers/built-in.o
                0x000000000000df54                of_find_node_opts_by_path
 .text.of_find_node_by_phandle
                0x000000000000e0f0       0x5c drivers/built-in.o
                0x000000000000e0f0                of_find_node_by_phandle
 .text.of_read_u32
                0x000000000000e14c       0x48 drivers/built-in.o
                0x000000000000e14c                of_read_u32
 .text.__of_parse_phandle_with_args.constprop.2
                0x000000000000e194      0x170 drivers/built-in.o
 .text.of_read_u32_array
                0x000000000000e304       0x54 drivers/built-in.o
                0x000000000000e304                of_read_u32_array
 .text.of_property_match_string
                0x000000000000e358       0xa4 drivers/built-in.o
                0x000000000000e358                of_property_match_string
 .text.of_property_read_string_helper
                0x000000000000e3fc       0xd8 drivers/built-in.o
                0x000000000000e3fc                of_property_read_string_helper
 .text.of_parse_phandle_with_args
                0x000000000000e4d4       0x10 drivers/built-in.o
                0x000000000000e4d4                of_parse_phandle_with_args
 .text.of_count_phandle_with_args
                0x000000000000e4e4        0xc drivers/built-in.o
                0x000000000000e4e4                of_count_phandle_with_args
 .text.of_alias_get_id
                0x000000000000e4f0       0x6c drivers/built-in.o
                0x000000000000e4f0                of_alias_get_id
 .text.of_bus_default_map
                0x000000000000e55c       0xa4 drivers/built-in.o
 .text.of_bus_default_get_flags
                0x000000000000e600        0x8 drivers/built-in.o
 .text.of_bus_default_count_cells
                0x000000000000e608       0x48 drivers/built-in.o
 .text.of_match_bus
                0x000000000000e650       0x64 drivers/built-in.o
 .text.of_bus_default_translate
                0x000000000000e6b4       0xb8 drivers/built-in.o
 .text.of_get_address
                0x000000000000e76c      0x14c drivers/built-in.o
                0x000000000000e76c                of_get_address
 .text.of_translate_address
                0x000000000000e8b8      0x23c drivers/built-in.o
                0x000000000000e8b8                of_translate_address
 .text.of_address_to_resource
                0x000000000000eaf4       0xcc drivers/built-in.o
                0x000000000000eaf4                of_address_to_resource
 .text.dev_read_u32_default
                0x000000000000ebc0       0x18 drivers/built-in.o
                0x000000000000ebc0                dev_read_u32_default
 .text.dev_read_string
                0x000000000000ebd8       0x18 drivers/built-in.o
                0x000000000000ebd8                dev_read_string
 .text.dev_read_bool
                0x000000000000ebf0       0x18 drivers/built-in.o
                0x000000000000ebf0                dev_read_bool
 .text.dev_read_first_subnode
                0x000000000000ec08       0x18 drivers/built-in.o
                0x000000000000ec08                dev_read_first_subnode
 .text.dev_read_size
                0x000000000000ec20       0x18 drivers/built-in.o
                0x000000000000ec20                dev_read_size
 .text.dev_read_addr_index
                0x000000000000ec38       0x44 drivers/built-in.o
                0x000000000000ec38                dev_read_addr_index
 .text.dev_read_addr
                0x000000000000ec7c        0x8 drivers/built-in.o
                0x000000000000ec7c                dev_read_addr
 .text.dev_read_addr_ptr
                0x000000000000ec84       0x1c drivers/built-in.o
                0x000000000000ec84                dev_read_addr_ptr
 .text.dev_read_addr_size
                0x000000000000eca0       0x18 drivers/built-in.o
                0x000000000000eca0                dev_read_addr_size
 .text.dev_read_stringlist_search
                0x000000000000ecb8       0x18 drivers/built-in.o
                0x000000000000ecb8                dev_read_stringlist_search
 .text.dev_read_phandle_with_args
                0x000000000000ecd0       0x18 drivers/built-in.o
                0x000000000000ecd0                dev_read_phandle_with_args
 .text.dev_count_phandle_with_args
                0x000000000000ece8       0x18 drivers/built-in.o
                0x000000000000ece8                dev_count_phandle_with_args
 .text.dev_read_simple_addr_cells
                0x000000000000ed00       0x18 drivers/built-in.o
                0x000000000000ed00                dev_read_simple_addr_cells
 .text.dev_read_simple_size_cells
                0x000000000000ed18       0x18 drivers/built-in.o
                0x000000000000ed18                dev_read_simple_size_cells
 .text.dev_read_phandle
                0x000000000000ed30       0x3c drivers/built-in.o
                0x000000000000ed30                dev_read_phandle
 .text.dev_read_prop
                0x000000000000ed6c       0x18 drivers/built-in.o
                0x000000000000ed6c                dev_read_prop
 .text.dev_read_alias_seq
                0x000000000000ed84       0x70 drivers/built-in.o
                0x000000000000ed84                dev_read_alias_seq
 .text.dev_read_u32_array
                0x000000000000edf4       0x40 drivers/built-in.o
                0x000000000000edf4                dev_read_u32_array
 .text.ofnode_read_u32
                0x000000000000ee34       0x94 drivers/built-in.o
                0x000000000000ee34                ofnode_read_u32
 .text.ofnode_read_u32_default
                0x000000000000eec8       0x2c drivers/built-in.o
                0x000000000000eec8                ofnode_read_u32_default
 .text.ofnode_read_string
                0x000000000000eef4       0xac drivers/built-in.o
                0x000000000000eef4                ofnode_read_string
 .text.ofnode_read_u32_array
                0x000000000000efa0       0x4c drivers/built-in.o
                0x000000000000efa0                ofnode_read_u32_array
 .text.ofnode_first_subnode
                0x000000000000efec       0x64 drivers/built-in.o
                0x000000000000efec                ofnode_first_subnode
 .text.ofnode_next_subnode
                0x000000000000f050       0x64 drivers/built-in.o
                0x000000000000f050                ofnode_next_subnode
 .text.ofnode_get_name
                0x000000000000f0b4       0x80 drivers/built-in.o
                0x000000000000f0b4                ofnode_get_name
 .text.ofnode_get_by_phandle
                0x000000000000f134       0x30 drivers/built-in.o
                0x000000000000f134                ofnode_get_by_phandle
 .text.ofnode_read_size
                0x000000000000f164       0x74 drivers/built-in.o
                0x000000000000f164                ofnode_read_size
 .text.ofnode_get_addr_index
                0x000000000000f1d8       0xa4 drivers/built-in.o
                0x000000000000f1d8                ofnode_get_addr_index
 .text.ofnode_stringlist_search
                0x000000000000f27c       0x6c drivers/built-in.o
                0x000000000000f27c                ofnode_stringlist_search
 .text.ofnode_parse_phandle_with_args
                0x000000000000f2e8       0xd8 drivers/built-in.o
                0x000000000000f2e8                ofnode_parse_phandle_with_args
 .text.ofnode_count_phandle_with_args
                0x000000000000f3c0       0x50 drivers/built-in.o
                0x000000000000f3c0                ofnode_count_phandle_with_args
 .text.ofnode_path
                0x000000000000f410       0x40 drivers/built-in.o
                0x000000000000f410                ofnode_path
 .text.ofnode_get_property
                0x000000000000f450       0x44 drivers/built-in.o
                0x000000000000f450                ofnode_get_property
 .text.ofnode_read_bool
                0x000000000000f494       0x28 drivers/built-in.o
                0x000000000000f494                ofnode_read_bool
 .text.ofnode_is_available
                0x000000000000f4bc       0x54 drivers/built-in.o
                0x000000000000f4bc                ofnode_is_available
 .text.ofnode_get_addr_size
                0x000000000000f510       0xf0 drivers/built-in.o
                0x000000000000f510                ofnode_get_addr_size
 .text.ofnode_read_simple_addr_cells
                0x000000000000f600       0x3c drivers/built-in.o
                0x000000000000f600                ofnode_read_simple_addr_cells
 .text.ofnode_read_simple_size_cells
                0x000000000000f63c       0x3c drivers/built-in.o
                0x000000000000f63c                ofnode_read_simple_size_cells
 .text.ofnode_pre_reloc
                0x000000000000f678       0x48 drivers/built-in.o
                0x000000000000f678                ofnode_pre_reloc
 .text.crypto_algo_nbits
                0x000000000000f6c0       0xfc drivers/built-in.o
                0x000000000000f6c0                crypto_algo_nbits
 .text.crypto_get_device
                0x000000000000f7bc       0x78 drivers/built-in.o
                0x000000000000f7bc                crypto_get_device
 .text.crypto_sha_init
                0x000000000000f834       0x34 drivers/built-in.o
                0x000000000000f834                crypto_sha_init
 .text.crypto_sha_update
                0x000000000000f868       0x2c drivers/built-in.o
                0x000000000000f868                crypto_sha_update
 .text.crypto_sha_final
                0x000000000000f894       0xcc drivers/built-in.o
                0x000000000000f894                crypto_sha_final
 .text.crypto_sha_csum
                0x000000000000f960       0x78 drivers/built-in.o
                0x000000000000f960                crypto_sha_csum
 .text.mod_exp_sw
                0x000000000000f9d8       0x14 drivers/built-in.o
                0x000000000000f9d8                mod_exp_sw
 .text.crypto_v3_dynamic_cap
                0x000000000000f9ec       0x64 drivers/built-in.o
 .text.hw_hash_clean_ctx
                0x000000000000fa50       0x44 drivers/built-in.o
 .text.rockchip_crypto_rsa_verify
                0x000000000000fa94      0x15c drivers/built-in.o
 .text.rockchip_crypto_capability
                0x000000000000fbf0       0x24 drivers/built-in.o
 .text.rockchip_crypto_sha_init
                0x000000000000fc14      0x1f8 drivers/built-in.o
 .text.rk_hash_direct_calc
                0x000000000000fe0c      0x168 drivers/built-in.o
 .text.rockchip_crypto_ofdata_to_platdata
                0x000000000000ff74      0x148 drivers/built-in.o
 .text.rockchip_crypto_probe
                0x00000000000100bc      0x150 drivers/built-in.o
 .text.rk_hash_update
                0x000000000001020c       0x68 drivers/built-in.o
                0x000000000001020c                rk_hash_update
 .text.rockchip_crypto_sha_update
                0x0000000000010274       0x9c drivers/built-in.o
 .text.rk_hash_final
                0x0000000000010310      0x160 drivers/built-in.o
                0x0000000000010310                rk_hash_final
 .text.rockchip_crypto_sha_final
                0x0000000000010470       0x7c drivers/built-in.o
 .text.crypto_flush_cacheline
                0x00000000000104ec       0x30 drivers/built-in.o
                0x00000000000104ec                crypto_flush_cacheline
 .text.crypto_hash_cache_alloc
                0x000000000001051c       0x74 drivers/built-in.o
                0x000000000001051c                crypto_hash_cache_alloc
 .text.crypto_hash_cache_free
                0x0000000000010590        0x4 drivers/built-in.o
                0x0000000000010590                crypto_hash_cache_free
 .text.crypto_hash_update_with_cache
                0x0000000000010594      0x1e8 drivers/built-in.o
                0x0000000000010594                crypto_hash_update_with_cache
 .text.mpa_highest_bit_index
                0x000000000001077c       0x60 drivers/built-in.o
 .text.rk_check_size
                0x00000000000107dc       0x30 drivers/built-in.o
 .text.rk_pka_ram_ctrl_enable
                0x000000000001080c       0x18 drivers/built-in.o
                0x000000000001080c                rk_pka_ram_ctrl_enable
 .text.rk_pka_ram_ctrl_disable
                0x0000000000010824       0x18 drivers/built-in.o
                0x0000000000010824                rk_pka_ram_ctrl_disable
 .text.rk_pka_wait_on_ram_ready
                0x000000000001083c       0x18 drivers/built-in.o
                0x000000000001083c                rk_pka_wait_on_ram_ready
 .text.rk_pka_wait_on_pipe_ready
                0x0000000000010854       0x18 drivers/built-in.o
                0x0000000000010854                rk_pka_wait_on_pipe_ready
 .text.rk_pka_wait_on_done
                0x000000000001086c       0x18 drivers/built-in.o
                0x000000000001086c                rk_pka_wait_on_done
 .text.rk_pka_get_status_div_byzero
                0x0000000000010884       0x30 drivers/built-in.o
                0x0000000000010884                rk_pka_get_status_div_byzero
 .text.rk_pka_read_regsize
                0x00000000000108b4       0x38 drivers/built-in.o
                0x00000000000108b4                rk_pka_read_regsize
 .text.rk_pka_get_regaddr
                0x00000000000108ec       0x20 drivers/built-in.o
                0x00000000000108ec                rk_pka_get_regaddr
 .text.rk_pka_read_regaddr
                0x000000000001090c       0x38 drivers/built-in.o
                0x000000000001090c                rk_pka_read_regaddr
 .text.rk_pka_make_full_opcode
                0x0000000000010944       0x48 drivers/built-in.o
                0x0000000000010944                rk_pka_make_full_opcode
 .text.rk_pka_hw_load_block2pka_mem
                0x000000000001098c       0x38 drivers/built-in.o
                0x000000000001098c                rk_pka_hw_load_block2pka_mem
 .text.rk_pka_hw_clear_pka_mem
                0x00000000000109c4       0x38 drivers/built-in.o
                0x00000000000109c4                rk_pka_hw_clear_pka_mem
 .text.rk_pka_hw_read_block_from_pka_mem
                0x00000000000109fc       0x38 drivers/built-in.o
                0x00000000000109fc                rk_pka_hw_read_block_from_pka_mem
 .text.rk_pka_exec_operation
                0x0000000000010a34       0xac drivers/built-in.o
                0x0000000000010a34                rk_pka_exec_operation
 .text.rk_pka_set_sizes_tab
                0x0000000000010ae0       0xb4 drivers/built-in.o
                0x0000000000010ae0                rk_pka_set_sizes_tab
 .text.rk_pka_set_map_tab
                0x0000000000010b94       0xf8 drivers/built-in.o
                0x0000000000010b94                rk_pka_set_map_tab
 .text.rk_pka_clear_block_of_regs
                0x0000000000010c8c       0xe4 drivers/built-in.o
                0x0000000000010c8c                rk_pka_clear_block_of_regs
 .text.rk_pka_init
                0x0000000000010d70       0xd4 drivers/built-in.o
                0x0000000000010d70                rk_pka_init
 .text.rk_pka_finish
                0x0000000000010e44       0x40 drivers/built-in.o
                0x0000000000010e44                rk_pka_finish
 .text.rk_pka_copy_data_into_reg
                0x0000000000010e84       0xa4 drivers/built-in.o
                0x0000000000010e84                rk_pka_copy_data_into_reg
 .text.rk_pka_copy_data_from_reg
                0x0000000000010f28       0x4c drivers/built-in.o
                0x0000000000010f28                rk_pka_copy_data_from_reg
 .text.rk_pka_div_long_num
                0x0000000000010f74      0x17c drivers/built-in.o
                0x0000000000010f74                rk_pka_div_long_num
 .text.rk_pka_calcNp_and_initmodop
                0x00000000000110f0      0x118 drivers/built-in.o
                0x00000000000110f0                rk_pka_calcNp_and_initmodop
 .text.rk_calcNp_and_initmodop
                0x0000000000011208       0xa0 drivers/built-in.o
                0x0000000000011208                rk_calcNp_and_initmodop
 .text.rk_mpa_alloc
                0x00000000000112a8       0xcc drivers/built-in.o
                0x00000000000112a8                rk_mpa_alloc
 .text.rk_mpa_free
                0x0000000000011374        0x4 drivers/built-in.o
                0x0000000000011374                rk_mpa_free
 .text.rk_mod   0x0000000000011378      0x14c drivers/built-in.o
                0x0000000000011378                rk_mod
 .text.rk_exptmod_np
                0x00000000000114c4      0x270 drivers/built-in.o
                0x00000000000114c4                rk_exptmod_np
 .text.util_word_memcpy
                0x0000000000011734       0x20 drivers/built-in.o
                0x0000000000011734                util_word_memcpy
 .text.util_word_memset
                0x0000000000011754       0x1c drivers/built-in.o
                0x0000000000011754                util_word_memset
 .text.misc_read
                0x0000000000011770       0x1c drivers/built-in.o
                0x0000000000011770                misc_read
 .text.misc_ioctl
                0x000000000001178c       0x1c drivers/built-in.o
                0x000000000001178c                misc_ioctl
 .text.misc_get_device_by_capability
                0x00000000000117a8       0x88 drivers/built-in.o
                0x00000000000117a8                misc_get_device_by_capability
 .text.misc_otp_get_device
                0x0000000000011830        0x4 drivers/built-in.o
                0x0000000000011830                misc_otp_get_device
 .text.misc_otp_read
                0x0000000000011834        0x4 drivers/built-in.o
                0x0000000000011834                misc_otp_read
 .text.misc_decompress_finish.isra.1
                0x0000000000011838       0x68 drivers/built-in.o
 .text.misc_decompress_async
                0x00000000000118a0       0x38 drivers/built-in.o
                0x00000000000118a0                misc_decompress_async
 .text.misc_decompress_sync
                0x00000000000118d8       0x38 drivers/built-in.o
                0x00000000000118d8                misc_decompress_sync
 .text.misc_decompress_cleanup
                0x0000000000011910       0xdc drivers/built-in.o
                0x0000000000011910                misc_decompress_cleanup
 .text.misc_decompress_process
                0x00000000000119ec      0x300 drivers/built-in.o
                0x00000000000119ec                misc_decompress_process
 .text.rockchip_otp_probe
                0x0000000000011cec       0x48 drivers/built-in.o
 .text.rockchip_otp_read
                0x0000000000011d34       0x60 drivers/built-in.o
 .text.rockchip_otp_ofdata_to_platdata
                0x0000000000011d94       0x34 drivers/built-in.o
 .text.rockchip_rv1126_otp_read
                0x0000000000011dc8       0xe4 drivers/built-in.o
 .text.rockchip_rv1126_otp_init
                0x0000000000011eac       0xe0 drivers/built-in.o
 .text.rockchip_rk3588_otp_read
                0x0000000000011f8c      0x194 drivers/built-in.o
 .text.rk3308bs_otp_wait_status.isra.0
                0x0000000000012120       0x7c drivers/built-in.o
 .text.rockchip_rk3308bs_otp_read
                0x000000000001219c      0x24c drivers/built-in.o
 .text.rockchip_otp_wait_status.isra.2
                0x00000000000123e8       0x7c drivers/built-in.o
 .text.rockchip_otp_ecc_enable.constprop.5
                0x0000000000012464       0x94 drivers/built-in.o
 .text.rockchip_px30_otp_read
                0x00000000000124f8      0x104 drivers/built-in.o
 .text.rockchip_rk3568_otp_read
                0x00000000000125fc      0x178 drivers/built-in.o
 .text.secure_otp_ioctl
                0x0000000000012774       0x24 drivers/built-in.o
 .text.secure_otp_write
                0x0000000000012798       0x48 drivers/built-in.o
 .text.secure_otp_read
                0x00000000000127e0       0x48 drivers/built-in.o
 .text.rockchip_secure_otp_ofdata_to_platdata
                0x0000000000012828       0x88 drivers/built-in.o
 .text.rk3588_secure_otp_read_byte.isra.0
                0x00000000000128b0       0xc4 drivers/built-in.o
 .text.rk3588_secure_otp_read
                0x0000000000012974       0xc0 drivers/built-in.o
 .text.rk3588_secure_otp_write
                0x0000000000012a34      0x194 drivers/built-in.o
 .text.rockchip_decom_ioctl
                0x0000000000012bc8      0x1bc drivers/built-in.o
 .text.rockchip_decom_ofdata_to_platdata
                0x0000000000012d84       0x58 drivers/built-in.o
 .text.rockchip_decom_probe
                0x0000000000012ddc       0x6c drivers/built-in.o
 .text.sysreset_request
                0x0000000000012e48       0x1c drivers/built-in.o
                0x0000000000012e48                sysreset_request
 .text.sysreset_walk
                0x0000000000012e64       0x6c drivers/built-in.o
                0x0000000000012e64                sysreset_walk
 .text.sysreset_walk_halt
                0x0000000000012ed0       0x34 drivers/built-in.o
                0x0000000000012ed0                sysreset_walk_halt
 .text.reboot   0x0000000000012f04       0x5c drivers/built-in.o
                0x0000000000012f04                reboot
 .text.do_reset
                0x0000000000012f60       0x20 drivers/built-in.o
                0x0000000000012f60                do_reset
 .text.rockchip_sysreset_request
                0x0000000000012f80       0x68 drivers/built-in.o
                0x0000000000012f80                rockchip_sysreset_request
 .text.psci_probe
                0x0000000000012fe8       0xa0 drivers/built-in.o
 .text.__invoke_psci_fn_smc
                0x0000000000013088       0x38 drivers/built-in.o
 .text.__invoke_psci_fn_hvc
                0x00000000000130c0       0x38 drivers/built-in.o
 .text.psci_bind
                0x00000000000130f8       0x68 drivers/built-in.o
 .text.scmi_bind_protocols
                0x0000000000013160       0xc4 drivers/built-in.o
 .text.mmc_send_op_cond_iter
                0x0000000000013224       0x74 drivers/built-in.o
 .text.mmc_read_blocks
                0x0000000000013298       0xd4 drivers/built-in.o
 .text.mmc_go_idle
                0x000000000001336c       0x50 drivers/built-in.o
 .text.mmc_set_capacity
                0x00000000000133bc       0x84 drivers/built-in.o
 .text.mmc_send_ext_csd
                0x0000000000013440       0x68 drivers/built-in.o
 .text.__mmc_switch.isra.3
                0x00000000000134a8      0x130 drivers/built-in.o
 .text.mmc_select_bus_width
                0x00000000000135d8      0x17c drivers/built-in.o
 .text.mmc_send_status
                0x0000000000013754       0xd4 drivers/built-in.o
                0x0000000000013754                mmc_send_status
 .text.mmc_set_blocklen
                0x0000000000013828       0x5c drivers/built-in.o
                0x0000000000013828                mmc_set_blocklen
 .text.mmc_set_clock
                0x0000000000013884       0x24 drivers/built-in.o
                0x0000000000013884                mmc_set_clock
 .text.mmc_set_bus_speed
                0x00000000000138a8       0x5c drivers/built-in.o
 .text.mmc_startup
                0x0000000000013904      0xc08 drivers/built-in.o
 .text.mmc_send_tuning
                0x000000000001450c       0xd4 drivers/built-in.o
                0x000000000001450c                mmc_send_tuning
 .text.mmc_switch_part
                0x00000000000145e0       0x7c drivers/built-in.o
                0x00000000000145e0                mmc_switch_part
 .text.mmc_start_init
                0x000000000001465c      0x21c drivers/built-in.o
                0x000000000001465c                mmc_start_init
 .text.mmc_init
                0x0000000000014878      0x134 drivers/built-in.o
                0x0000000000014878                mmc_init
 .text.mmc_bread
                0x00000000000149ac      0x158 drivers/built-in.o
                0x00000000000149ac                mmc_bread
 .text.mmc_initialize
                0x0000000000014b04       0x34 drivers/built-in.o
                0x0000000000014b04                mmc_initialize
 .text.mmc_blk_probe
                0x0000000000014b38       0x1c drivers/built-in.o
 .text.mmc_card_busy
                0x0000000000014b54       0x20 drivers/built-in.o
                0x0000000000014b54                mmc_card_busy
 .text.mmc_can_card_busy
                0x0000000000014b74       0x1c drivers/built-in.o
                0x0000000000014b74                mmc_can_card_busy
 .text.dm_mmc_set_ios
                0x0000000000014b90       0x1c drivers/built-in.o
                0x0000000000014b90                dm_mmc_set_ios
 .text.mmc_set_ios
                0x0000000000014bac        0x8 drivers/built-in.o
                0x0000000000014bac                mmc_set_ios
 .text.dm_mmc_get_cd
                0x0000000000014bb4       0x1c drivers/built-in.o
                0x0000000000014bb4                dm_mmc_get_cd
 .text.mmc_getcd
                0x0000000000014bd0        0x8 drivers/built-in.o
                0x0000000000014bd0                mmc_getcd
 .text.mmc_get_mmc_dev
                0x0000000000014bd8       0x28 drivers/built-in.o
                0x0000000000014bd8                mmc_get_mmc_dev
 .text.dm_mmc_send_cmd
                0x0000000000014c00       0xe4 drivers/built-in.o
                0x0000000000014c00                dm_mmc_send_cmd
 .text.mmc_send_cmd
                0x0000000000014ce4        0x8 drivers/built-in.o
                0x0000000000014ce4                mmc_send_cmd
 .text.mmc_select_hwpart
                0x0000000000014cec       0x78 drivers/built-in.o
 .text.find_mmc_device
                0x0000000000014d64       0x54 drivers/built-in.o
                0x0000000000014d64                find_mmc_device
 .text.mmc_get_blk_desc
                0x0000000000014db8       0x30 drivers/built-in.o
                0x0000000000014db8                mmc_get_blk_desc
 .text.mmc_do_preinit
                0x0000000000014de8       0x68 drivers/built-in.o
                0x0000000000014de8                mmc_do_preinit
 .text.mmc_bind
                0x0000000000014e50       0xb8 drivers/built-in.o
                0x0000000000014e50                mmc_bind
 .text.mmc_erase_t
                0x0000000000014f08      0x100 drivers/built-in.o
 .text.mmc_write_blocks
                0x0000000000015008      0x138 drivers/built-in.o
 .text.mmc_berase
                0x0000000000015140      0x15c drivers/built-in.o
                0x0000000000015140                mmc_berase
 .text.mmc_bwrite
                0x000000000001529c       0xe4 drivers/built-in.o
                0x000000000001529c                mmc_bwrite
 .text.dwmci_execute_tuning
                0x0000000000015380       0x40 drivers/built-in.o
 .text.dwmci_card_busy
                0x00000000000153c0       0x28 drivers/built-in.o
 .text.dwmci_get_cd
                0x00000000000153e8       0x60 drivers/built-in.o
 .text.dwmci_wait_reset.isra.0
                0x0000000000015448       0x3c drivers/built-in.o
 .text.dwmci_send_cmd
                0x0000000000015484      0x624 drivers/built-in.o
 .text.dwmci_setup_bus.part.3
                0x0000000000015aa8      0x10c drivers/built-in.o
 .text.dwmci_set_ios
                0x0000000000015bb4       0xb8 drivers/built-in.o
 .text.dwmci_probe
                0x0000000000015c6c      0x17c drivers/built-in.o
                0x0000000000015c6c                dwmci_probe
 .text.dwmci_setup_cfg
                0x0000000000015de8       0x98 drivers/built-in.o
                0x0000000000015de8                dwmci_setup_cfg
 .text.dwmci_bind
                0x0000000000015e80        0x4 drivers/built-in.o
                0x0000000000015e80                dwmci_bind
 .text.rockchip_dwmmc_ofdata_to_platdata
                0x0000000000015e84      0x110 drivers/built-in.o
 .text.rockchip_dwmmc_get_mmc_clk
                0x0000000000015f94       0x58 drivers/built-in.o
 .text.rockchip_dwmmc_execute_tuning
                0x0000000000015fec      0x104 drivers/built-in.o
 .text.rockchip_dwmmc_bind
                0x00000000000160f0       0x2c drivers/built-in.o
 .text.mmc_gpio_init_direct
                0x000000000001611c        0x4 drivers/built-in.o
                0x000000000001611c                mmc_gpio_init_direct
 .text.rockchip_dwmmc_probe
                0x0000000000016120      0x128 drivers/built-in.o
 .text.sdhci_card_busy
                0x0000000000016248       0x2c drivers/built-in.o
 .text.sdhci_reset.isra.3
                0x0000000000016274       0x88 drivers/built-in.o
 .text.sdhci_send_command
                0x00000000000162fc      0x5c8 drivers/built-in.o
 .text.sdhci_execute_tuning
                0x00000000000168c4      0x114 drivers/built-in.o
 .text.sdhci_set_clock
                0x00000000000169d8      0x1b0 drivers/built-in.o
                0x00000000000169d8                sdhci_set_clock
 .text.sdhci_set_ios
                0x0000000000016b88      0x1e0 drivers/built-in.o
 .text.sdhci_probe
                0x0000000000016d68      0x19c drivers/built-in.o
                0x0000000000016d68                sdhci_probe
 .text.sdhci_setup_cfg
                0x0000000000016f04      0x1b0 drivers/built-in.o
                0x0000000000016f04                sdhci_setup_cfg
 .text.sdhci_bind
                0x00000000000170b4        0x4 drivers/built-in.o
                0x00000000000170b4                sdhci_bind
 .text.dwcmshc_emmc_get_phy
                0x00000000000170b8        0x8 drivers/built-in.o
 .text.rockchip_sdhci_of_to_plat
                0x00000000000170c0       0x3c drivers/built-in.o
 .text.rockchip_sdhci_set_clock
                0x00000000000170fc       0x48 drivers/built-in.o
 .text.rockchip_sdhci_set_ios_post
                0x0000000000017144       0x40 drivers/built-in.o
 .text.rockchip_sdhci_probe
                0x0000000000017184      0x1d0 drivers/built-in.o
 .text.rockchip_sdhci_bind
                0x0000000000017354       0x2c drivers/built-in.o
 .text.rk3399_emmc_get_phy
                0x0000000000017380       0xb4 drivers/built-in.o
 .text.dwcmshc_sdhci_set_ios_post
                0x0000000000017434       0x7c drivers/built-in.o
 .text.rockchip_emmc_set_clock
                0x00000000000174b0      0x1a0 drivers/built-in.o
 .text.dwcmshc_sdhci_emmc_set_clock
                0x0000000000017650      0x170 drivers/built-in.o
 .text.rk3399_sdhci_emmc_set_clock
                0x00000000000177c0      0x198 drivers/built-in.o
 .text.pinconfig_post_bind
                0x0000000000017958       0xe0 drivers/built-in.o
 .text.pinctrl_post_bind
                0x0000000000017a38       0x28 drivers/built-in.o
 .text.pinctrl_select_state
                0x0000000000017a60      0x168 drivers/built-in.o
                0x0000000000017a60                pinctrl_select_state
 .text.rockchip_get_recalced_mux
                0x0000000000017bc8       0xd8 drivers/built-in.o
                0x0000000000017c34                rockchip_get_recalced_mux
 .text.px30_calc_pull_reg_and_bit
                0x0000000000017ca0       0x6c drivers/built-in.o
 .text.px30_calc_drv_reg_and_bit
                0x0000000000017d0c       0x6c drivers/built-in.o
 .text.px30_calc_schmitt_reg_and_bit
                0x0000000000017d78       0x68 drivers/built-in.o
 .text.rv1108_calc_pull_reg_and_bit
                0x0000000000017de0       0x6c drivers/built-in.o
 .text.rv1108_calc_drv_reg_and_bit
                0x0000000000017e4c       0x6c drivers/built-in.o
 .text.rv1108_calc_schmitt_reg_and_bit
                0x0000000000017eb8       0x68 drivers/built-in.o
 .text.rv1126_calc_pull_reg_and_bit
                0x0000000000017f20       0xac drivers/built-in.o
 .text.rv1126_calc_drv_reg_and_bit
                0x0000000000017fcc       0xa8 drivers/built-in.o
 .text.rv1126_calc_schmitt_reg_and_bit
                0x0000000000018074       0xac drivers/built-in.o
 .text.rk1808_calc_pull_reg_and_bit
                0x0000000000018120       0x60 drivers/built-in.o
 .text.rk1808_calc_drv_reg_and_bit
                0x0000000000018180       0x5c drivers/built-in.o
 .text.rk1808_calc_schmitt_reg_and_bit
                0x00000000000181dc       0x6c drivers/built-in.o
 .text.rk3128_calc_pull_reg_and_bit
                0x0000000000018248       0x48 drivers/built-in.o
 .text.rk2928_calc_pull_reg_and_bit
                0x0000000000018290        0x4 drivers/built-in.o
 .text.rk3188_calc_pull_reg_and_bit
                0x0000000000018294       0x90 drivers/built-in.o
 .text.rk3288_calc_pull_reg_and_bit
                0x0000000000018324       0x70 drivers/built-in.o
 .text.rk3288_calc_drv_reg_and_bit
                0x0000000000018394       0x70 drivers/built-in.o
 .text.rk3228_calc_drv_reg_and_bit
                0x0000000000018404       0x4c drivers/built-in.o
 .text.rk3308_calc_pull_reg_and_bit
                0x0000000000018450       0x4c drivers/built-in.o
 .text.rk3308_calc_drv_reg_and_bit
                0x000000000001849c       0x4c drivers/built-in.o
 .text.rk3228_calc_pull_reg_and_bit
                0x00000000000184e8        0x4 drivers/built-in.o
 .text.rk3308_calc_schmitt_reg_and_bit
                0x00000000000184ec       0x4c drivers/built-in.o
 .text.rk3368_calc_pull_reg_and_bit
                0x0000000000018538       0x70 drivers/built-in.o
 .text.rk3368_calc_drv_reg_and_bit
                0x00000000000185a8       0x70 drivers/built-in.o
 .text.rk3399_calc_pull_reg_and_bit
                0x0000000000018618       0x74 drivers/built-in.o
 .text.rk3399_calc_drv_reg_and_bit
                0x000000000001868c       0x74 drivers/built-in.o
 .text.rk3328_calc_schmitt_reg_and_bit
                0x0000000000018700       0x4c drivers/built-in.o
 .text.px30_calc_slew_rate_reg_and_bit
                0x000000000001874c       0x68 drivers/built-in.o
 .text.rockchip_pinctrl_get_pins_count
                0x00000000000187b4       0x38 drivers/built-in.o
 .text.rockchip_pinctrl_get_gpio_mux
                0x00000000000187ec      0x25c drivers/built-in.o
 .text.rockchip_set_pull
                0x0000000000018a48      0x160 drivers/built-in.o
 .text.rockchip_pinctrl_probe
                0x0000000000018ba8      0x560 drivers/built-in.o
                0x0000000000018e78                rockchip_pinctrl_probe
 .text.rockchip_pinctrl_set_state
                0x0000000000019108      0xa9c drivers/built-in.o
 .text.rockchip_get_mux_data
                0x0000000000019ba4       0x98 drivers/built-in.o
                0x0000000000019ba4                rockchip_get_mux_data
 .text.rk3588_set_mux
                0x0000000000019c3c      0x138 drivers/built-in.o
 .text.rk3588_set_schmitt
                0x0000000000019d74       0xb0 drivers/built-in.o
 .text.rk3588_set_drive
                0x0000000000019e24       0xb4 drivers/built-in.o
 .text.rk3588_set_pull
                0x0000000000019ed8       0xb4 drivers/built-in.o
 .text._serial_putc
                0x0000000000019f8c       0x58 drivers/built-in.o
 .text.serial_post_probe
                0x0000000000019fe4       0x20 drivers/built-in.o
 .text.serial_pre_remove
                0x000000000001a004        0x8 drivers/built-in.o
 .text.serial_init
                0x000000000001a00c        0x8 drivers/built-in.o
                0x000000000001a00c                serial_init
 .text.serial_putc
                0x000000000001a014       0x1c drivers/built-in.o
                0x000000000001a014                serial_putc
 .text.ns16550_serial_ofdata_to_platdata
                0x000000000001a030      0x124 drivers/built-in.o
                0x000000000001a030                ns16550_serial_ofdata_to_platdata
 .text.ns16550_writeb.isra.0
                0x000000000001a154       0x1c drivers/built-in.o
 .text.NS16550_setbrg
                0x000000000001a170       0x54 drivers/built-in.o
 .text.ns16550_serial_setbrg
                0x000000000001a1c4       0x3c drivers/built-in.o
 .text.ns16550_serial_clear
                0x000000000001a200       0x28 drivers/built-in.o
 .text.ns16550_readb.isra.1
                0x000000000001a228       0x1c drivers/built-in.o
 .text.ns16550_serial_pending
                0x000000000001a244       0x44 drivers/built-in.o
 .text.ns16550_serial_putc
                0x000000000001a288       0x48 drivers/built-in.o
 .text.ns16550_serial_getc
                0x000000000001a2d0       0x3c drivers/built-in.o
 .text.NS16550_init
                0x000000000001a30c       0x70 drivers/built-in.o
                0x000000000001a30c                NS16550_init
 .text.ns16550_serial_probe
                0x000000000001a37c       0x40 drivers/built-in.o
                0x000000000001a37c                ns16550_serial_probe
 .text.printch  0x000000000001a3bc       0x68 drivers/built-in.o
                0x000000000001a3bc                printch
 .text.debug_uart_flushc
                0x000000000001a424       0x34 drivers/built-in.o
                0x000000000001a424                debug_uart_flushc
 .text.printascii
                0x000000000001a458       0x7c drivers/built-in.o
                0x000000000001a458                printascii
 .text.debug_uart_init
                0x000000000001a4d4       0x70 drivers/built-in.o
                0x000000000001a4d4                debug_uart_init
 .text.spi_flash_post_bind
                0x000000000001a544        0x8 drivers/built-in.o
 .text.spi_flash_read_dm
                0x000000000001a54c       0x10 drivers/built-in.o
                0x000000000001a54c                spi_flash_read_dm
 .text.spi_flash_write_dm
                0x000000000001a55c       0x10 drivers/built-in.o
                0x000000000001a55c                spi_flash_write_dm
 .text.spi_flash_erase_dm
                0x000000000001a56c       0x10 drivers/built-in.o
                0x000000000001a56c                spi_flash_erase_dm
 .text.spi_flash_std_write
                0x000000000001a57c       0x48 drivers/built-in.o
 .text.spi_flash_std_read
                0x000000000001a5c4       0x48 drivers/built-in.o
 .text.spi_flash_std_get_sw_write_prot
                0x000000000001a60c       0x14 drivers/built-in.o
 .text.spi_flash_std_erase
                0x000000000001a620       0x88 drivers/built-in.o
 .text.spi_flash_std_remove
                0x000000000001a6a8       0x18 drivers/built-in.o
 .text.spi_flash_std_probe
                0x000000000001a6c0       0xac drivers/built-in.o
 .text.spi_flash_std_bind
                0x000000000001a76c       0x58 drivers/built-in.o
 .text.read_sr  0x000000000001a7c4       0x30 drivers/built-in.o
 .text.read_cr  0x000000000001a7f4       0x30 drivers/built-in.o
 .text.write_sr
                0x000000000001a824       0x18 drivers/built-in.o
 .text.write_enable
                0x000000000001a83c       0x14 drivers/built-in.o
 .text.write_disable
                0x000000000001a850       0x14 drivers/built-in.o
 .text.stm_get_locked_range
                0x000000000001a864       0x50 drivers/built-in.o
 .text.spi_nor_read
                0x000000000001a8b4       0x98 drivers/built-in.o
 .text.spi_nor_write_data
                0x000000000001a94c       0xc0 drivers/built-in.o
 .text.spi_nor_read_data
                0x000000000001aa0c       0xdc drivers/built-in.o
 .text.sst26_process_bpr
                0x000000000001aae8       0x7c drivers/built-in.o
 .text.sst26_lock_ctl
                0x000000000001ab64      0x25c drivers/built-in.o
 .text.sst26_is_locked
                0x000000000001adc0       0x24 drivers/built-in.o
 .text.sst26_unlock
                0x000000000001ade4        0x8 drivers/built-in.o
 .text.sst26_lock
                0x000000000001adec        0x8 drivers/built-in.o
 .text.spi_nor_read_reg
                0x000000000001adf4       0x40 drivers/built-in.o
 .text.spi_nor_wait_till_ready
                0x000000000001ae34      0x130 drivers/built-in.o
 .text.spi_nor_write
                0x000000000001af64      0x12c drivers/built-in.o
 .text.sst_write
                0x000000000001b090      0x1fc drivers/built-in.o
 .text.spansion_read_cr_quad_enable
                0x000000000001b28c       0x94 drivers/built-in.o
 .text.macronix_quad_enable
                0x000000000001b320       0x80 drivers/built-in.o
 .text.spi_nor_erase
                0x000000000001b3a0       0xe4 drivers/built-in.o
 .text.write_sr_and_check.constprop.10
                0x000000000001b484       0x60 drivers/built-in.o
 .text.spi_nor_write_reg
                0x000000000001b4e4       0x48 drivers/built-in.o
 .text.stm_is_locked
                0x000000000001b52c       0x78 drivers/built-in.o
 .text.stm_is_unlocked_sr
                0x000000000001b5a4       0x5c drivers/built-in.o
 .text.stm_unlock
                0x000000000001b600      0x220 drivers/built-in.o
 .text.stm_is_locked_sr
                0x000000000001b820       0x5c drivers/built-in.o
 .text.stm_lock
                0x000000000001b87c      0x218 drivers/built-in.o
 .text.spi_nor_scan
                0x000000000001ba94      0x888 drivers/built-in.o
                0x000000000001ba94                spi_nor_scan
 .text.spi_flash_cmd_get_sw_write_prot
                0x000000000001c31c       0x24 drivers/built-in.o
                0x000000000001c31c                spi_flash_cmd_get_sw_write_prot
 .text.spi_flash_mtd_sync
                0x000000000001c340        0x4 drivers/built-in.o
 .text.spi_flash_mtd_write
                0x000000000001c344       0x44 drivers/built-in.o
 .text.spi_flash_mtd_read
                0x000000000001c388       0x44 drivers/built-in.o
 .text.spi_flash_mtd_erase
                0x000000000001c3cc       0x80 drivers/built-in.o
 .text.spi_flash_mtd_register
                0x000000000001c44c       0xfc drivers/built-in.o
                0x000000000001c44c                spi_flash_mtd_register
 .text.spi_flash_mtd_unregister
                0x000000000001c548       0x58 drivers/built-in.o
                0x000000000001c548                spi_flash_mtd_unregister
 .text.spi_child_pre_probe
                0x000000000001c5a0       0x4c drivers/built-in.o
 .text.spi_post_probe
                0x000000000001c5ec       0x40 drivers/built-in.o
 .text.dm_spi_claim_bus
                0x000000000001c62c      0x144 drivers/built-in.o
                0x000000000001c62c                dm_spi_claim_bus
 .text.dm_spi_release_bus
                0x000000000001c770       0x1c drivers/built-in.o
                0x000000000001c770                dm_spi_release_bus
 .text.dm_spi_xfer
                0x000000000001c78c       0x3c drivers/built-in.o
                0x000000000001c78c                dm_spi_xfer
 .text.spi_claim_bus
                0x000000000001c7c8        0x8 drivers/built-in.o
                0x000000000001c7c8                spi_claim_bus
 .text.spi_release_bus
                0x000000000001c7d0        0x8 drivers/built-in.o
                0x000000000001c7d0                spi_release_bus
 .text.spi_xfer
                0x000000000001c7d8        0x8 drivers/built-in.o
                0x000000000001c7d8                spi_xfer
 .text.spi_slave_ofdata_to_platdata
                0x000000000001c7e0      0x16c drivers/built-in.o
                0x000000000001c7e0                spi_slave_ofdata_to_platdata
 .text.spi_child_post_bind
                0x000000000001c94c       0x58 drivers/built-in.o
 .text.spi_check_buswidth_req.isra.0
                0x000000000001c9a4       0x80 drivers/built-in.o
 .text.spi_mem_default_supports_op
                0x000000000001ca24       0x9c drivers/built-in.o
                0x000000000001ca24                spi_mem_default_supports_op
 .text.spi_mem_supports_op
                0x000000000001cac0       0x38 drivers/built-in.o
                0x000000000001cac0                spi_mem_supports_op
 .text.spi_mem_exec_op
                0x000000000001caf8      0x1b8 drivers/built-in.o
                0x000000000001caf8                spi_mem_exec_op
 .text.spi_mem_adjust_op_size
                0x000000000001ccb0       0x9c drivers/built-in.o
                0x000000000001ccb0                spi_mem_adjust_op_size
 .text.rockchip_spi_set_mode
                0x000000000001cd4c       0x28 drivers/built-in.o
 .text.rockchip_spi_set_speed
                0x000000000001cd74       0x34 drivers/built-in.o
 .text.rockchip_spi_release_bus
                0x000000000001cda8       0x28 drivers/built-in.o
 .text.rockchip_spi_claim_bus
                0x000000000001cdd0      0x134 drivers/built-in.o
 .text.rockchip_spi_ofdata_to_platdata
                0x000000000001cf04      0x138 drivers/built-in.o
 .text.rockchip_spi_probe
                0x000000000001d03c       0xc8 drivers/built-in.o
 .text.rockchip_spi_xfer
                0x000000000001d104      0x1f8 drivers/built-in.o
 .text.rockchip_sfc_get_max_dll_cells
                0x000000000001d2fc       0x3c drivers/built-in.o
 .text.rockchip_sfc_set_delay_lines
                0x000000000001d338       0x44 drivers/built-in.o
 .text.rockchip_sfc_set_mode
                0x000000000001d37c        0x8 drivers/built-in.o
 .text.rockchip_sfc_adjust_op_size
                0x000000000001d384       0x40 drivers/built-in.o
 .text.rockchip_sfc_ofdata_to_platdata
                0x000000000001d3c4       0xc4 drivers/built-in.o
 .text.rockchip_sfc_probe
                0x000000000001d488       0xa8 drivers/built-in.o
 .text.rockchip_sfc_xfer_setup.isra.3
                0x000000000001d530      0x150 drivers/built-in.o
 .text.rockchip_sfc_reset.isra.7
                0x000000000001d680       0x8c drivers/built-in.o
 .text.rockchip_sfc_wait_for_dma_finished
                0x000000000001d70c       0x90 drivers/built-in.o
 .text.rockchip_sfc_wait_rxfifo_ready.isra.5.constprop.12
                0x000000000001d79c       0x68 drivers/built-in.o
 .text.rockchip_sfc_read_fifo
                0x000000000001d804       0xcc drivers/built-in.o
 .text.rockchip_sfc_xfer_done.constprop.13
                0x000000000001d8d0       0x74 drivers/built-in.o
 .text.rockchip_sfc_wait_txfifo_ready.isra.4.constprop.14
                0x000000000001d944       0x68 drivers/built-in.o
 .text.rockchip_sfc_write_fifo
                0x000000000001d9ac       0xd0 drivers/built-in.o
 .text.rockchip_sfc_exec_op
                0x000000000001da7c      0x1c4 drivers/built-in.o
 .text.rockchip_sfc_exec_op_bypass.isra.9
                0x000000000001dc40       0xc4 drivers/built-in.o
 .text.rockchip_sfc_set_speed
                0x000000000001dd04      0x2b8 drivers/built-in.o
 .text.check_reserved
                0x000000000001dfbc       0x78 drivers/built-in.o
 .text.gpio_hog_ofdata_to_platdata
                0x000000000001e034      0x104 drivers/built-in.o
 .text.gpio_renumber
                0x000000000001e138       0x90 drivers/built-in.o
 .text.gpio_pre_remove
                0x000000000001e1c8       0x24 drivers/built-in.o
 .text.gpio_post_probe
                0x000000000001e1ec       0x48 drivers/built-in.o
 .text.gpio_post_bind
                0x000000000001e234       0xa0 drivers/built-in.o
 .text.gpio_xlate_offs_flags
                0x000000000001e2d4       0x3c drivers/built-in.o
                0x000000000001e2d4                gpio_xlate_offs_flags
 .text.dm_gpio_request
                0x000000000001e310       0xa8 drivers/built-in.o
                0x000000000001e310                dm_gpio_request
 .text._dm_gpio_free
                0x000000000001e3b8       0x78 drivers/built-in.o
                0x000000000001e3b8                _dm_gpio_free
 .text.dm_gpio_get_value
                0x000000000001e430       0x54 drivers/built-in.o
                0x000000000001e430                dm_gpio_get_value
 .text.dm_gpio_set_value
                0x000000000001e484       0x6c drivers/built-in.o
                0x000000000001e484                dm_gpio_set_value
 .text.dm_gpio_set_dir_flags
                0x000000000001e4f0       0xac drivers/built-in.o
                0x000000000001e4f0                dm_gpio_set_dir_flags
 .text.gpio_request_tail.isra.2
                0x000000000001e59c       0xc8 drivers/built-in.o
 .text.gpio_request_by_name
                0x000000000001e664       0x7c drivers/built-in.o
                0x000000000001e664                gpio_request_by_name
 .text.dm_gpio_free
                0x000000000001e6e0       0x10 drivers/built-in.o
                0x000000000001e6e0                dm_gpio_free
 .text.gpio_dev_request_index
                0x000000000001e6f0       0x4c drivers/built-in.o
                0x000000000001e6f0                gpio_dev_request_index
 .text.gpio_hog_probe
                0x000000000001e73c       0x84 drivers/built-in.o
 .text.rockchip_gpio_get_function
                0x000000000001e7c0        0x8 drivers/built-in.o
 .text.rockchip_gpio_set_value
                0x000000000001e7c8       0x9c drivers/built-in.o
 .text.rockchip_gpio_get_value
                0x000000000001e864       0x38 drivers/built-in.o
 .text.rockchip_gpio_direction_output
                0x000000000001e89c       0xe8 drivers/built-in.o
 .text.rockchip_gpio_direction_input
                0x000000000001e984       0x84 drivers/built-in.o
 .text.rockchip_gpio_probe
                0x000000000001ea08      0x164 drivers/built-in.o
 .text.mtd_check_oob_ops
                0x000000000001eb6c       0xac drivers/built-in.o
 .text.mtd_ooblayout_free
                0x000000000001ec18       0x80 drivers/built-in.o
                0x000000000001ec18                mtd_ooblayout_free
 .text.mtd_ooblayout_find_region
                0x000000000001ec98       0xa4 drivers/built-in.o
 .text.mtd_ooblayout_get_bytes
                0x000000000001ed3c       0xb0 drivers/built-in.o
 .text.mtd_ooblayout_set_bytes
                0x000000000001edec       0xb0 drivers/built-in.o
 .text.idr_remove
                0x000000000001ee9c       0x1c drivers/built-in.o
                0x000000000001ee9c                idr_remove
 .text.del_mtd_device
                0x000000000001eeb8       0x78 drivers/built-in.o
                0x000000000001eeb8                del_mtd_device
 .text.mtd_read
                0x000000000001ef30       0xc4 drivers/built-in.o
                0x000000000001ef30                mtd_read
 .text.mtd_read_oob
                0x000000000001eff4       0xac drivers/built-in.o
                0x000000000001eff4                mtd_read_oob
 .text.mtd_write_oob
                0x000000000001f0a0       0x88 drivers/built-in.o
                0x000000000001f0a0                mtd_write_oob
 .text.mtd_ooblayout_get_databytes
                0x000000000001f128        0xc drivers/built-in.o
                0x000000000001f128                mtd_ooblayout_get_databytes
 .text.mtd_ooblayout_set_databytes
                0x000000000001f134        0xc drivers/built-in.o
                0x000000000001f134                mtd_ooblayout_set_databytes
 .text.mtd_ooblayout_count_freebytes
                0x000000000001f140       0x58 drivers/built-in.o
                0x000000000001f140                mtd_ooblayout_count_freebytes
 .text.mtd_unlock
                0x000000000001f198       0x44 drivers/built-in.o
                0x000000000001f198                mtd_unlock
 .text.add_mtd_device
                0x000000000001f1dc      0x220 drivers/built-in.o
                0x000000000001f1dc                add_mtd_device
 .text.mtd_block_isbad
                0x000000000001f3fc       0x2c drivers/built-in.o
                0x000000000001f3fc                mtd_block_isbad
 .text.mtd_blk_probe
                0x000000000001f428      0x278 drivers/built-in.o
 .text.mtd_map_read.isra.0
                0x000000000001f6a0      0x154 drivers/built-in.o
 .text.mtd_dread
                0x000000000001f7f4       0xd8 drivers/built-in.o
                0x000000000001f7f4                mtd_dread
 .text.mtd_blk_map_table_init
                0x000000000001f8cc      0x1a0 drivers/built-in.o
                0x000000000001f8cc                mtd_blk_map_table_init
 .text.mtd_blk_map_partitions
                0x000000000001fa6c       0x68 drivers/built-in.o
                0x000000000001fa6c                mtd_blk_map_partitions
 .text.mtd_blk_map_fit
                0x000000000001fad4       0x9c drivers/built-in.o
                0x000000000001fad4                mtd_blk_map_fit
 .text.nanddev_isbad
                0x000000000001fb70       0xb4 drivers/built-in.o
                0x000000000001fb70                nanddev_isbad
 .text.nanddev_markbad
                0x000000000001fc24       0x9c drivers/built-in.o
                0x000000000001fc24                nanddev_markbad
 .text.nanddev_isreserved
                0x000000000001fcc0       0x44 drivers/built-in.o
                0x000000000001fcc0                nanddev_isreserved
 .text.nanddev_erase
                0x000000000001fd04       0x60 drivers/built-in.o
                0x000000000001fd04                nanddev_erase
 .text.nanddev_mtd_erase
                0x000000000001fd64      0x194 drivers/built-in.o
                0x000000000001fd64                nanddev_mtd_erase
 .text.nanddev_init
                0x000000000001fef8      0x194 drivers/built-in.o
                0x000000000001fef8                nanddev_init
 .text.nanddev_cleanup
                0x000000000002008c       0x10 drivers/built-in.o
                0x000000000002008c                nanddev_cleanup
 .text.nanddev_read_bbt
                0x000000000002009c      0x1ac drivers/built-in.o
 .text.nanddev_bbt_init
                0x0000000000020248       0x54 drivers/built-in.o
                0x0000000000020248                nanddev_bbt_init
 .text.nanddev_bbt_cleanup
                0x000000000002029c        0x4 drivers/built-in.o
                0x000000000002029c                nanddev_bbt_cleanup
 .text.nanddev_bbt_get_block_status
                0x00000000000202a0       0xec drivers/built-in.o
                0x00000000000202a0                nanddev_bbt_get_block_status
 .text.nanddev_bbt_update
                0x000000000002038c      0x30c drivers/built-in.o
                0x000000000002038c                nanddev_bbt_update
 .text.nanddev_bbt_set_block_status
                0x0000000000020698       0xc4 drivers/built-in.o
                0x0000000000020698                nanddev_bbt_set_block_status
 .text.gd5fxgq4xa_ooblayout_ecc
                0x000000000002075c       0x28 drivers/built-in.o
 .text.gd5fxgq4xa_ooblayout_free
                0x0000000000020784       0x44 drivers/built-in.o
 .text.gd5fxgq4xa_ecc_get_status
                0x00000000000207c8       0x4c drivers/built-in.o
 .text.gd5fxgqx_variant2_ooblayout_ecc
                0x0000000000020814       0x1c drivers/built-in.o
 .text.gd5fxgq4xc_ooblayout_256_ecc
                0x0000000000020830       0x1c drivers/built-in.o
 .text.gd5fxgq4xc_ooblayout_256_free
                0x000000000002084c       0x24 drivers/built-in.o
 .text.gd5fxgqx_variant3_ooblayout_ecc
                0x0000000000020870        0x8 drivers/built-in.o
 .text.gd5fxgqx_variant3_ooblayout_free
                0x0000000000020878       0x24 drivers/built-in.o
 .text.gd5fxgq4ufxxg_ecc_get_status
                0x000000000002089c       0x40 drivers/built-in.o
 .text.gd5fxgq5xexxg_ecc_get_status
                0x00000000000208dc       0x98 drivers/built-in.o
 .text.gd5fxgq4uexxg_ecc_get_status
                0x0000000000020974       0xc4 drivers/built-in.o
 .text.gigadevice_spinand_init
                0x0000000000020a38       0x7c drivers/built-in.o
 .text.gd5fxgqx_variant2_ooblayout_free
                0x0000000000020ab4       0x24 drivers/built-in.o
 .text.mx35lfxge4ab_ooblayout_ecc
                0x0000000000020ad8        0x8 drivers/built-in.o
 .text.mx35lfxge4ab_ooblayout_free
                0x0000000000020ae0       0x24 drivers/built-in.o
 .text.mx35lf1ge4ab_ecc_get_status
                0x0000000000020b04       0xd8 drivers/built-in.o
 .text.mt29f2g01abagd_ooblayout_ecc
                0x0000000000020bdc       0x1c drivers/built-in.o
 .text.mt29f2g01abagd_ooblayout_free
                0x0000000000020bf8       0x24 drivers/built-in.o
 .text.mt29f2g01abagd_ecc_get_status
                0x0000000000020c1c       0x5c drivers/built-in.o
 .text.tc58cxgxsx_ooblayout_ecc
                0x0000000000020c78       0x24 drivers/built-in.o
 .text.tc58cxgxsx_ooblayout_free
                0x0000000000020c9c       0x2c drivers/built-in.o
 .text.tc58cxgxsx_ecc_get_status
                0x0000000000020cc8       0xf4 drivers/built-in.o
 .text.w25m02gv_ooblayout_ecc
                0x0000000000020dbc       0x28 drivers/built-in.o
 .text.w25m02gv_ooblayout_free
                0x0000000000020de4       0x28 drivers/built-in.o
 .text.w25n02kv_ooblayout_ecc
                0x0000000000020e0c       0x1c drivers/built-in.o
 .text.w25n02kv_ooblayout_free
                0x0000000000020e28       0x24 drivers/built-in.o
 .text.w25n02kv_ecc_get_status
                0x0000000000020e4c       0x38 drivers/built-in.o
 .text.winbond_spinand_init
                0x0000000000020e84       0x54 drivers/built-in.o
 .text.w25m02gv_select_target
                0x0000000000020ed8       0x50 drivers/built-in.o
 .text.ds35xxga_ooblayout_ecc
                0x0000000000020f28       0x28 drivers/built-in.o
 .text.ds35xxga_ooblayout_free
                0x0000000000020f50       0x28 drivers/built-in.o
 .text.ds35xxgb_ooblayout_ecc
                0x0000000000020f78       0x1c drivers/built-in.o
 .text.ds35xxgb_ooblayout_free
                0x0000000000020f94       0x24 drivers/built-in.o
 .text.ds35xxgb_ecc_get_status
                0x0000000000020fb8       0x5c drivers/built-in.o
 .text.f50lxx41x_ooblayout_ecc
                0x0000000000021014       0x28 drivers/built-in.o
 .text.f50lxx41x_ooblayout_free
                0x000000000002103c       0x28 drivers/built-in.o
 .text.xt26g0xa_ooblayout_ecc
                0x0000000000021064       0x24 drivers/built-in.o
 .text.xt26g0xa_ooblayout_free
                0x0000000000021088       0x24 drivers/built-in.o
 .text.xt26g01b_ooblayout_ecc
                0x00000000000210ac        0x8 drivers/built-in.o
 .text.xt26g01b_ooblayout_free
                0x00000000000210b4       0x24 drivers/built-in.o
 .text.xt26g02b_ooblayout_ecc
                0x00000000000210d8       0x28 drivers/built-in.o
 .text.xt26g02b_ooblayout_free
                0x0000000000021100       0x28 drivers/built-in.o
 .text.xt26g01c_ooblayout_ecc
                0x0000000000021128       0x20 drivers/built-in.o
 .text.xt26g01c_ooblayout_free
                0x0000000000021148       0x2c drivers/built-in.o
 .text.xt26g0xa_ecc_get_status
                0x0000000000021174       0x20 drivers/built-in.o
 .text.xt26g02b_ecc_get_status
                0x0000000000021194       0x14 drivers/built-in.o
 .text.xt26g01c_ecc_get_status
                0x00000000000211a8       0x14 drivers/built-in.o
 .text.hyf1gq4upacae_ooblayout_ecc
                0x00000000000211bc       0x1c drivers/built-in.o
 .text.hyf1gq4upacae_ooblayout_free
                0x00000000000211d8       0x24 drivers/built-in.o
 .text.hyf1gq4udacae_ooblayout_ecc
                0x00000000000211fc       0x28 drivers/built-in.o
 .text.hyf1gq4udacae_ooblayout_free
                0x0000000000021224       0x28 drivers/built-in.o
 .text.hyf2gq4uaacae_ooblayout_ecc
                0x000000000002124c       0x28 drivers/built-in.o
 .text.hyf2gq4uaacae_ooblayout_free
                0x0000000000021274       0x24 drivers/built-in.o
 .text.hyf1gq4udacae_ecc_get_status
                0x0000000000021298       0x38 drivers/built-in.o
 .text.fm25s01a_ooblayout_ecc
                0x00000000000212d0        0x8 drivers/built-in.o
 .text.fm25s01_ooblayout_ecc
                0x00000000000212d8       0x1c drivers/built-in.o
 .text.fm25s01_ooblayout_free
                0x00000000000212f4       0x24 drivers/built-in.o
 .text.fm25s01a_ooblayout_free
                0x0000000000021318       0x24 drivers/built-in.o
 .text.fsxxndxxg_ooblayout_ecc
                0x000000000002133c        0x8 drivers/built-in.o
 .text.fsxxndxxg_ooblayout_free
                0x0000000000021344       0x24 drivers/built-in.o
 .text.bwjx08k_ooblayout_ecc
                0x0000000000021368       0x28 drivers/built-in.o
 .text.bwjx08k_ooblayout_free
                0x0000000000021390       0x28 drivers/built-in.o
 .text.bwjx08k_ecc_get_status
                0x00000000000213b8       0x38 drivers/built-in.o
 .text.em73c044vcf_oh_ooblayout_ecc
                0x00000000000213f0       0x28 drivers/built-in.o
 .text.em73c044vcf_oh_ooblayout_free
                0x0000000000021418       0x28 drivers/built-in.o
 .text.em73c044vcf_oh_ecc_get_status
                0x0000000000021440       0x38 drivers/built-in.o
 .text.js28u1gqscahg_ooblayout_ecc
                0x0000000000021478       0x20 drivers/built-in.o
 .text.js28u1gqscahg_ooblayout_free
                0x0000000000021498       0x2c drivers/built-in.o
 .text.js28u1gqscahg_ecc_get_status
                0x00000000000214c4       0x24 drivers/built-in.o
 .text.sgm7000i_ooblayout_ecc
                0x00000000000214e8        0x8 drivers/built-in.o
 .text.sgm7000i_ooblayout_free
                0x00000000000214f0       0x24 drivers/built-in.o
 .text.tx25g01_ooblayout_ecc
                0x0000000000021514       0x28 drivers/built-in.o
 .text.tx25g01_ooblayout_free
                0x000000000002153c       0x28 drivers/built-in.o
 .text.tx25g01_ecc_get_status
                0x0000000000021564       0x24 drivers/built-in.o
 .text.s35ml04g3_ooblayout_ecc
                0x0000000000021588        0x8 drivers/built-in.o
 .text.s35ml04g3_ooblayout_free
                0x0000000000021590       0x24 drivers/built-in.o
 .text.spinand_manufacturer_cleanup
                0x00000000000215b4       0x18 drivers/built-in.o
 .text.spinand_noecc_ooblayout_ecc
                0x00000000000215cc        0x8 drivers/built-in.o
 .text.spinand_noecc_ooblayout_free
                0x00000000000215d4       0x24 drivers/built-in.o
 .text.spinand_write_reg_op
                0x00000000000215f8       0x5c drivers/built-in.o
 .text.spinand_read_reg_op
                0x0000000000021654       0x78 drivers/built-in.o
 .text.spinand_load_page_op
                0x00000000000216cc       0x64 drivers/built-in.o
 .text.spinand_select_op_variant
                0x0000000000021730       0xb4 drivers/built-in.o
 .text.spinand_mtd_erase
                0x00000000000217e4        0x4 drivers/built-in.o
 .text.spinand_mtd_block_isreserved
                0x00000000000217e8       0x6c drivers/built-in.o
 .text.spinand_mtd_block_markbad
                0x0000000000021854       0x68 drivers/built-in.o
 .text.spinand_mtd_block_isbad
                0x00000000000218bc       0x6c drivers/built-in.o
 .text.spinand_bind
                0x0000000000021928       0x58 drivers/built-in.o
 .text.spinand_cache_op_adjust_colum.isra.0
                0x0000000000021980       0x88 drivers/built-in.o
 .text.spinand_read_from_cache_op
                0x0000000000021a08      0x170 drivers/built-in.o
 .text.spinand_write_enable_op.isra.1
                0x0000000000021b78       0x38 drivers/built-in.o
 .text.spinand_read_id_op
                0x0000000000021bb0       0x88 drivers/built-in.o
 .text.spinand_wait
                0x0000000000021c38       0x98 drivers/built-in.o
 .text.spinand_write_page
                0x0000000000021cd0      0x228 drivers/built-in.o
 .text.spinand_upd_cfg
                0x0000000000021ef8       0x98 drivers/built-in.o
                0x0000000000021ef8                spinand_upd_cfg
 .text.spinand_select_target
                0x0000000000021f90       0x84 drivers/built-in.o
                0x0000000000021f90                spinand_select_target
 .text.spinand_mtd_write
                0x0000000000022014      0x244 drivers/built-in.o
 .text.spinand_mtd_read
                0x0000000000022258      0x33c drivers/built-in.o
 .text.spinand_isbad
                0x0000000000022594       0xac drivers/built-in.o
 .text.spinand_markbad
                0x0000000000022640       0x74 drivers/built-in.o
 .text.spinand_erase
                0x00000000000226b4       0xb4 drivers/built-in.o
 .text.spinand_match_and_init
                0x0000000000022768      0x104 drivers/built-in.o
                0x0000000000022768                spinand_match_and_init
 .text.spinand_manufacturer_match
                0x000000000002286c       0x84 drivers/built-in.o
 .text.spinand_probe
                0x00000000000228f0      0x410 drivers/built-in.o
 .text.blk_select_hwpart
                0x0000000000022d00       0x28 drivers/built-in.o
                0x0000000000022d00                blk_select_hwpart
 .text.blk_dselect_hwpart
                0x0000000000022d28        0x8 drivers/built-in.o
                0x0000000000022d28                blk_dselect_hwpart
 .text.blk_find_device
                0x0000000000022d30       0xa0 drivers/built-in.o
                0x0000000000022d30                blk_find_device
 .text.blk_get_device
                0x0000000000022dd0       0x34 drivers/built-in.o
                0x0000000000022dd0                blk_get_device
 .text.blk_select_hwpart_devnum
                0x0000000000022e04       0x34 drivers/built-in.o
                0x0000000000022e04                blk_select_hwpart_devnum
 .text.blk_dread
                0x0000000000022e38       0x20 drivers/built-in.o
                0x0000000000022e38                blk_dread
 .text.blk_find_max_devnum
                0x0000000000022e58       0x90 drivers/built-in.o
                0x0000000000022e58                blk_find_max_devnum
 .text.blk_create_device
                0x0000000000022ee8      0x188 drivers/built-in.o
                0x0000000000022ee8                blk_create_device
 .text.blk_create_devicef
                0x0000000000023070       0xb4 drivers/built-in.o
                0x0000000000023070                blk_create_devicef
 .text.reset_get_by_index
                0x0000000000023124       0xac drivers/built-in.o
                0x0000000000023124                reset_get_by_index
 .text.reset_get_by_name
                0x00000000000231d0       0x50 drivers/built-in.o
                0x00000000000231d0                reset_get_by_name
 .text.reset_assert
                0x0000000000023220       0x14 drivers/built-in.o
                0x0000000000023220                reset_assert
 .text.reset_deassert
                0x0000000000023234       0x14 drivers/built-in.o
                0x0000000000023234                reset_deassert
 .text.rockchip_reset_free
                0x0000000000023248        0x8 drivers/built-in.o
 .text.rockchip_reset_deassert
                0x0000000000023250       0x50 drivers/built-in.o
 .text.rockchip_reset_assert
                0x00000000000232a0       0x50 drivers/built-in.o
 .text.rockchip_reset_request
                0x00000000000232f0       0x38 drivers/built-in.o
 .text.rockchip_reset_probe
                0x0000000000023328       0x60 drivers/built-in.o

.iplt           0x0000000000023388        0x0
 .iplt          0x0000000000023388        0x0 arch/arm/cpu/armv8/start.o

.rodata         0x0000000000023388     0xb0dd
                0x0000000000023388                . = ALIGN (0x8)
 *(SORT(.rodata*))
 .rodata        0x0000000000023388       0x14 common/spl/built-in.o
 *fill*         0x000000000002339c        0x4 
 .rodata        0x00000000000233a0       0x28 lib/built-in.o
 .rodata        0x00000000000233c8       0xd4 drivers/built-in.o
 *fill*         0x000000000002349c        0x4 
 .rodata.CSWTCH.15
                0x00000000000234a0        0xa arch/arm/mach-rockchip/built-in.o
 *fill*         0x00000000000234aa        0x6 
 .rodata.CSWTCH.45
                0x00000000000234b0        0xc drivers/built-in.o
 *fill*         0x00000000000234bc        0x4 
 .rodata.__FUNCTION__.7053
                0x00000000000234c0       0x17 common/built-in.o
 *fill*         0x00000000000234d7        0x1 
 .rodata.__compound_literal.10
                0x00000000000234d8       0x41 drivers/built-in.o
 *fill*         0x0000000000023519        0x7 
 .rodata.__compound_literal.12
                0x0000000000023520       0x41 drivers/built-in.o
 *fill*         0x0000000000023561        0x7 
 .rodata.__compound_literal.14
                0x0000000000023568       0x39 drivers/built-in.o
 *fill*         0x00000000000235a1        0x7 
 .rodata.__compound_literal.16
                0x00000000000235a8       0x31 drivers/built-in.o
 *fill*         0x00000000000235d9        0x7 
 .rodata.__compound_literal.18
                0x00000000000235e0       0x29 drivers/built-in.o
 *fill*         0x0000000000023609        0x7 
 .rodata.__compound_literal.20
                0x0000000000023610       0x29 drivers/built-in.o
 *fill*         0x0000000000023639        0x7 
 .rodata.__compound_literal.22
                0x0000000000023640       0x19 drivers/built-in.o
 *fill*         0x0000000000023659        0x7 
 .rodata.__compound_literal.24
                0x0000000000023660        0x9 drivers/built-in.o
 *fill*         0x0000000000023669        0x7 
 .rodata.__compound_literal.26
                0x0000000000023670        0x9 drivers/built-in.o
 *fill*         0x0000000000023679        0x7 
 .rodata.__compound_literal.28
                0x0000000000023680        0x9 drivers/built-in.o
 *fill*         0x0000000000023689        0x7 
 .rodata.__compound_literal.30
                0x0000000000023690        0x9 drivers/built-in.o
 *fill*         0x0000000000023699        0x7 
 .rodata.__compound_literal.32
                0x00000000000236a0        0x9 drivers/built-in.o
 *fill*         0x00000000000236a9        0x7 
 .rodata.__compound_literal.34
                0x00000000000236b0        0x9 drivers/built-in.o
 *fill*         0x00000000000236b9        0x7 
 .rodata.__compound_literal.36
                0x00000000000236c0        0x9 drivers/built-in.o
 *fill*         0x00000000000236c9        0x7 
 .rodata.__compound_literal.38
                0x00000000000236d0        0x9 drivers/built-in.o
 *fill*         0x00000000000236d9        0x7 
 .rodata.__compound_literal.40
                0x00000000000236e0        0x9 drivers/built-in.o
 *fill*         0x00000000000236e9        0x7 
 .rodata.__compound_literal.42
                0x00000000000236f0        0x1 drivers/built-in.o
 *fill*         0x00000000000236f1        0x7 
 .rodata.__compound_literal.44
                0x00000000000236f8        0x1 drivers/built-in.o
 *fill*         0x00000000000236f9        0x7 
 .rodata.__compound_literal.46
                0x0000000000023700        0x1 drivers/built-in.o
 *fill*         0x0000000000023701        0x7 
 .rodata.__compound_literal.48
                0x0000000000023708        0x1 drivers/built-in.o
 *fill*         0x0000000000023709        0x7 
 .rodata.__compound_literal.6
                0x0000000000023710       0x79 drivers/built-in.o
 *fill*         0x0000000000023789        0x7 
 .rodata.__compound_literal.8
                0x0000000000023790       0x49 drivers/built-in.o
 *fill*         0x00000000000237d9        0x7 
 .rodata.__func__.6164
                0x00000000000237e0       0x15 common/built-in.o
 *fill*         0x00000000000237f5        0x3 
 .rodata.__func__.6231
                0x00000000000237f8        0xd drivers/built-in.o
 *fill*         0x0000000000023805        0x3 
 .rodata.__func__.6401
                0x0000000000023808       0x1d drivers/built-in.o
 *fill*         0x0000000000023825        0x3 
 .rodata.__func__.6580
                0x0000000000023828       0x12 disk/built-in.o
 *fill*         0x000000000002383a        0x6 
 .rodata.__func__.6724
                0x0000000000023840        0xd disk/built-in.o
 *fill*         0x000000000002384d        0x3 
 .rodata.__func__.6736
                0x0000000000023850       0x17 disk/built-in.o
 *fill*         0x0000000000023867        0x1 
 .rodata.__func__.6738
                0x0000000000023868       0x18 common/built-in.o
 .rodata.__func__.6741
                0x0000000000023880        0xd disk/built-in.o
 *fill*         0x000000000002388d        0x3 
 .rodata.__func__.6887
                0x0000000000023890       0x14 common/built-in.o
 *fill*         0x00000000000238a4        0x4 
 .rodata.__func__.7351
                0x00000000000238a8        0xc drivers/built-in.o
 *fill*         0x00000000000238b4        0x4 
 .rodata.__func__.7384
                0x00000000000238b8       0x14 drivers/built-in.o
 *fill*         0x00000000000238cc        0x4 
 .rodata.__func__.7407
                0x00000000000238d0       0x13 drivers/built-in.o
 *fill*         0x00000000000238e3        0x5 
 .rodata.__func__.7420
                0x00000000000238e8       0x10 drivers/built-in.o
 .rodata.__func__.7460
                0x00000000000238f8       0x1d drivers/built-in.o
 *fill*         0x0000000000023915        0x3 
 .rodata.__func__.7468
                0x0000000000023918        0xb drivers/built-in.o
 *fill*         0x0000000000023923        0x5 
 .rodata.__func__.7475
                0x0000000000023928       0x1c drivers/built-in.o
 *fill*         0x0000000000023944        0x4 
 .rodata.__func__.7490
                0x0000000000023948       0x20 drivers/built-in.o
 .rodata.__func__.7508
                0x0000000000023968       0x10 drivers/built-in.o
 .rodata.__func__.7532
                0x0000000000023978       0x19 drivers/built-in.o
 *fill*         0x0000000000023991        0x7 
 .rodata.__func__.7555
                0x0000000000023998       0x18 drivers/built-in.o
 .rodata.__func__.7565
                0x00000000000239b0       0x17 drivers/built-in.o
 *fill*         0x00000000000239c7        0x1 
 .rodata.__func__.7581
                0x00000000000239c8       0x1c drivers/built-in.o
 *fill*         0x00000000000239e4        0x4 
 .rodata.__func__.7587
                0x00000000000239e8       0x19 drivers/built-in.o
 *fill*         0x0000000000023a01        0x7 
 .rodata.__func__.7640
                0x0000000000023a08       0x14 drivers/built-in.o
 *fill*         0x0000000000023a1c        0x4 
 .rodata.__func__.7656
                0x0000000000023a20       0x1e drivers/built-in.o
 *fill*         0x0000000000023a3e        0x2 
 .rodata.__func__.7674
                0x0000000000023a40       0x19 drivers/built-in.o
 *fill*         0x0000000000023a59        0x7 
 .rodata.__func__.7718
                0x0000000000023a60       0x14 drivers/built-in.o
 *fill*         0x0000000000023a74        0x4 
 .rodata.__func__.7727
                0x0000000000023a78       0x19 drivers/built-in.o
 *fill*         0x0000000000023a91        0x7 
 .rodata.__func__.7748
                0x0000000000023a98       0x11 drivers/built-in.o
 *fill*         0x0000000000023aa9        0x7 
 .rodata.__func__.7758
                0x0000000000023ab0       0x19 drivers/built-in.o
 *fill*         0x0000000000023ac9        0x7 
 .rodata.__func__.7766
                0x0000000000023ad0        0xa drivers/built-in.o
 *fill*         0x0000000000023ada        0x6 
 .rodata.__func__.7803
                0x0000000000023ae0       0x19 drivers/built-in.o
 *fill*         0x0000000000023af9        0x7 
 .rodata.__func__.7809
                0x0000000000023b00       0x16 common/built-in.o
 *fill*         0x0000000000023b16        0x2 
 .rodata.__func__.7818
                0x0000000000023b18       0x13 drivers/built-in.o
 *fill*         0x0000000000023b2b        0x5 
 .rodata.__func__.7819
                0x0000000000023b30       0x16 drivers/built-in.o
 *fill*         0x0000000000023b46        0x2 
 .rodata.__func__.7832
                0x0000000000023b48       0x16 drivers/built-in.o
 *fill*         0x0000000000023b5e        0x2 
 .rodata.__func__.8098
                0x0000000000023b60        0x9 drivers/built-in.o
 *fill*         0x0000000000023b69        0x7 
 .rodata.__func__.8158
                0x0000000000023b70       0x19 drivers/built-in.o
 *fill*         0x0000000000023b89        0x7 
 .rodata.__func__.8171
                0x0000000000023b90       0x1e drivers/built-in.o
 *fill*         0x0000000000023bae        0x2 
 .rodata.__func__.8187
                0x0000000000023bb0       0x18 drivers/built-in.o
 .rodata.__func__.8195
                0x0000000000023bc8       0x12 drivers/built-in.o
 *fill*         0x0000000000023bda        0x6 
 .rodata.__func__.8211
                0x0000000000023be0       0x14 drivers/built-in.o
 *fill*         0x0000000000023bf4        0x4 
 .rodata.__func__.8251
                0x0000000000023bf8       0x14 drivers/built-in.o
 *fill*         0x0000000000023c0c        0x4 
 .rodata.__func__.8274
                0x0000000000023c10       0x15 drivers/built-in.o
 *fill*         0x0000000000023c25        0x3 
 .rodata.__func__.8302
                0x0000000000023c28       0x14 drivers/built-in.o
 *fill*         0x0000000000023c3c        0x4 
 .rodata.__func__.8306
                0x0000000000023c40       0x10 drivers/built-in.o
 .rodata.__func__.8307
                0x0000000000023c50       0x1a drivers/built-in.o
 *fill*         0x0000000000023c6a        0x6 
 .rodata.__func__.8311
                0x0000000000023c70       0x1c drivers/built-in.o
 *fill*         0x0000000000023c8c        0x4 
 .rodata.__func__.8331
                0x0000000000023c90       0x16 drivers/built-in.o
 *fill*         0x0000000000023ca6        0x2 
 .rodata.__func__.8699
                0x0000000000023ca8        0xf drivers/built-in.o
 *fill*         0x0000000000023cb7        0x1 
 .rodata._ctype
                0x0000000000023cb8      0x100 lib/built-in.o
                0x0000000000023cb8                _ctype
 .rodata.arasan_data
                0x0000000000023db8       0x20 drivers/built-in.o
 .rodata.biwin_spinand_manuf_ops
                0x0000000000023dd8       0x10 drivers/built-in.o
 .rodata.biwin_spinand_manufacturer
                0x0000000000023de8       0x28 drivers/built-in.o
                0x0000000000023de8                biwin_spinand_manufacturer
 .rodata.biwin_spinand_table
                0x0000000000023e10       0x78 drivers/built-in.o
 .rodata.boot_devices
                0x0000000000023e88       0x58 arch/arm/mach-rockchip/built-in.o
                0x0000000000023e88                boot_devices
 .rodata.bwjx08k_ooblayout
                0x0000000000023ee0       0x10 drivers/built-in.o
 .rodata.clk_fixed_rate_match
                0x0000000000023ef0       0x20 drivers/built-in.o
 .rodata.clk_fixed_rate_ops
                0x0000000000023f10       0x50 drivers/built-in.o
                0x0000000000023f10                clk_fixed_rate_ops
 .rodata.crc_table
                0x0000000000023f60      0x400 lib/built-in.o
 .rodata.dm_dwmci_ops
                0x0000000000024360       0x30 drivers/built-in.o
                0x0000000000024360                dm_dwmci_ops
 .rodata.dosilicon_spinand_manuf_ops
                0x0000000000024390       0x10 drivers/built-in.o
 .rodata.dosilicon_spinand_manufacturer
                0x00000000000243a0       0x28 drivers/built-in.o
                0x00000000000243a0                dosilicon_spinand_manufacturer
 .rodata.dosilicon_spinand_table
                0x00000000000243c8      0x3c0 drivers/built-in.o
 .rodata.ds35xxga_ooblayout
                0x0000000000024788       0x10 drivers/built-in.o
 .rodata.ds35xxgb_ooblayout
                0x0000000000024798       0x10 drivers/built-in.o
 .rodata.em73c044vcf_oh_ooblayout
                0x00000000000247a8       0x10 drivers/built-in.o
 .rodata.esmt_spinand_manuf_ops
                0x00000000000247b8       0x10 drivers/built-in.o
 .rodata.esmt_spinand_manufacturer
                0x00000000000247c8       0x28 drivers/built-in.o
                0x00000000000247c8                esmt_spinand_manufacturer
 .rodata.esmt_spinand_table
                0x00000000000247f0       0x78 drivers/built-in.o
 .rodata.etron_spinand_manuf_ops
                0x0000000000024868       0x10 drivers/built-in.o
 .rodata.etron_spinand_manufacturer
                0x0000000000024878       0x28 drivers/built-in.o
                0x0000000000024878                etron_spinand_manufacturer
 .rodata.etron_spinand_table
                0x00000000000248a0       0x78 drivers/built-in.o
 .rodata.f50lxx41x_ooblayout
                0x0000000000024918       0x10 drivers/built-in.o
 .rodata.fdt_errtable
                0x0000000000024928       0x90 lib/built-in.o
 .rodata.fm25s01_ooblayout
                0x00000000000249b8       0x10 drivers/built-in.o
 .rodata.fm25s01a_ooblayout
                0x00000000000249c8       0x10 drivers/built-in.o
 .rodata.fmsh_spinand_manuf_ops
                0x00000000000249d8       0x10 drivers/built-in.o
 .rodata.fmsh_spinand_manufacturer
                0x00000000000249e8       0x28 drivers/built-in.o
                0x00000000000249e8                fmsh_spinand_manufacturer
 .rodata.fmsh_spinand_table
                0x0000000000024a10      0x1e0 drivers/built-in.o
 .rodata.foresee_spinand_manuf_ops
                0x0000000000024bf0       0x10 drivers/built-in.o
 .rodata.foresee_spinand_manufacturer
                0x0000000000024c00       0x28 drivers/built-in.o
                0x0000000000024c00                foresee_spinand_manufacturer
 .rodata.foresee_spinand_table
                0x0000000000024c28      0x258 drivers/built-in.o
 .rodata.fsxxndxxg_ooblayout
                0x0000000000024e80       0x10 drivers/built-in.o
 .rodata.gd5fxgq4xa_ooblayout
                0x0000000000024e90       0x10 drivers/built-in.o
 .rodata.gd5fxgq4xc_oob_256_ops
                0x0000000000024ea0       0x10 drivers/built-in.o
 .rodata.gd5fxgqx_variant2_ooblayout
                0x0000000000024eb0       0x10 drivers/built-in.o
 .rodata.gd5fxgqx_variant3_ooblayout
                0x0000000000024ec0       0x10 drivers/built-in.o
 .rodata.generic_simple_bus_ids
                0x0000000000024ed0       0x30 drivers/built-in.o
 .rodata.generic_syscon_ids
                0x0000000000024f00       0x20 drivers/built-in.o
 .rodata.gigadevice_spinand_manuf_ops
                0x0000000000024f20       0x10 drivers/built-in.o
 .rodata.gigadevice_spinand_manufacturer
                0x0000000000024f30       0x28 drivers/built-in.o
                0x0000000000024f30                gigadevice_spinand_manufacturer
 .rodata.gigadevice_spinand_table
                0x0000000000024f58      0x7f8 drivers/built-in.o
 .rodata.gpio_rockchip_ops
                0x0000000000025750       0x50 drivers/built-in.o
 .rodata.hwcaps_pp2cmd.8635
                0x00000000000257a0       0x38 drivers/built-in.o
 .rodata.hwcaps_read2cmd.8631
                0x00000000000257d8       0x78 drivers/built-in.o
 .rodata.hyf1gq4udacae_ooblayout
                0x0000000000025850       0x10 drivers/built-in.o
 .rodata.hyf1gq4upacae_ooblayout
                0x0000000000025860       0x10 drivers/built-in.o
 .rodata.hyf2gq4uaacae_ooblayout
                0x0000000000025870       0x10 drivers/built-in.o
 .rodata.hyf_spinand_manuf_ops
                0x0000000000025880       0x10 drivers/built-in.o
 .rodata.hyf_spinand_manufacturer
                0x0000000000025890       0x28 drivers/built-in.o
                0x0000000000025890                hyf_spinand_manufacturer
 .rodata.hyf_spinand_table
                0x00000000000258b8      0x2d0 drivers/built-in.o
 .rodata.js28u1gqscahg_ooblayout
                0x0000000000025b88       0x10 drivers/built-in.o
 .rodata.jsc_spinand_manuf_ops
                0x0000000000025b98       0x10 drivers/built-in.o
 .rodata.jsc_spinand_manufacturer
                0x0000000000025ba8       0x28 drivers/built-in.o
                0x0000000000025ba8                jsc_spinand_manufacturer
 .rodata.jsc_spinand_table
                0x0000000000025bd0       0x78 drivers/built-in.o
 .rodata.macronix_spinand_manuf_ops
                0x0000000000025c48       0x10 drivers/built-in.o
 .rodata.macronix_spinand_manufacturer
                0x0000000000025c58       0x28 drivers/built-in.o
                0x0000000000025c58                macronix_spinand_manufacturer
 .rodata.macronix_spinand_table
                0x0000000000025c80      0xa50 drivers/built-in.o
 .rodata.micron_spinand_manuf_ops
                0x00000000000266d0       0x10 drivers/built-in.o
 .rodata.micron_spinand_manufacturer
                0x00000000000266e0       0x28 drivers/built-in.o
                0x00000000000266e0                micron_spinand_manufacturer
 .rodata.micron_spinand_table
                0x0000000000026708       0xf0 drivers/built-in.o
 .rodata.mmc_blk_ops
                0x00000000000267f8       0x20 drivers/built-in.o
 .rodata.mod_exp_ops_sw
                0x0000000000026818        0x8 drivers/built-in.o
 .rodata.mt29f2g01abagd_ooblayout
                0x0000000000026820       0x10 drivers/built-in.o
 .rodata.mtd_blk_ops
                0x0000000000026830       0x20 drivers/built-in.o
 .rodata.mx35lfxge4ab_ooblayout
                0x0000000000026850       0x10 drivers/built-in.o
 .rodata.ns16550_serial_ids
                0x0000000000026860       0xc0 drivers/built-in.o
 .rodata.ns16550_serial_ops
                0x0000000000026920       0x28 drivers/built-in.o
                0x0000000000026920                ns16550_serial_ops
 .rodata.null_hash_md5_value
                0x0000000000026948       0x10 drivers/built-in.o
 .rodata.null_hash_sha1_value
                0x0000000000026958       0x14 drivers/built-in.o
 *fill*         0x000000000002696c        0x4 
 .rodata.null_hash_sha256_value
                0x0000000000026970       0x20 drivers/built-in.o
 .rodata.null_hash_sha512_value
                0x0000000000026990       0x40 drivers/built-in.o
 .rodata.null_hash_sm3_value
                0x00000000000269d0       0x20 drivers/built-in.o
 .rodata.psci_of_match
                0x00000000000269f0       0x40 drivers/built-in.o
 .rodata.px30_data
                0x0000000000026a30       0x10 drivers/built-in.o
 .rodata.px30_pin_ctrl
                0x0000000000026a40       0x80 drivers/built-in.o
 .rodata.read_cache_variants
                0x0000000000026ac0      0x110 drivers/built-in.o
 .rodata.read_cache_variants_f
                0x0000000000026bd0       0x10 drivers/built-in.o
 .rodata.rk1808_pin_ctrl
                0x0000000000026be0       0x80 drivers/built-in.o
 .rodata.rk2928_pin_ctrl
                0x0000000000026c60       0x80 drivers/built-in.o
 .rodata.rk3036_pin_ctrl
                0x0000000000026ce0       0x80 drivers/built-in.o
 .rodata.rk3066a_pin_ctrl
                0x0000000000026d60       0x80 drivers/built-in.o
 .rodata.rk3066b_pin_ctrl
                0x0000000000026de0       0x80 drivers/built-in.o
 .rodata.rk3128_pin_ctrl
                0x0000000000026e60       0x80 drivers/built-in.o
 .rodata.rk3188_pin_ctrl
                0x0000000000026ee0       0x80 drivers/built-in.o
 .rodata.rk3228_pin_ctrl
                0x0000000000026f60       0x80 drivers/built-in.o
 .rodata.rk3288_pin_ctrl
                0x0000000000026fe0       0x80 drivers/built-in.o
 .rodata.rk3308bs_data
                0x0000000000027060       0x10 drivers/built-in.o
 .rodata.rk3328_pin_ctrl
                0x0000000000027070       0x80 drivers/built-in.o
 .rodata.rk3368_pin_ctrl
                0x00000000000270f0       0x80 drivers/built-in.o
 .rodata.rk3399_pin_ctrl
                0x0000000000027170       0x80 drivers/built-in.o
 .rodata.rk3568_data
                0x00000000000271f0       0x30 drivers/built-in.o
 .rodata.rk3588_clk_ids
                0x0000000000027220       0x20 drivers/built-in.o
 .rodata.rk3588_data
                0x0000000000027240       0x50 drivers/built-in.o
 .rodata.rk3588_ds_regs
                0x0000000000027290      0x140 drivers/built-in.o
 .rodata.rk3588_p_regs
                0x00000000000273d0       0xb8 drivers/built-in.o
 .rodata.rk3588_pin_ctrl
                0x0000000000027488       0x60 drivers/built-in.o
 .rodata.rk3588_pinctrl_ids
                0x00000000000274e8       0x20 drivers/built-in.o
 .rodata.rk3588_smt_regs
                0x0000000000027508       0xb8 drivers/built-in.o
 .rodata.rk3588_syscon_ids
                0x00000000000275c0       0xa0 arch/arm/mach-rockchip/built-in.o
 .rodata.rockchip_conf_params
                0x0000000000027660      0x120 drivers/built-in.o
 .rodata.rockchip_crypto_ids
                0x0000000000027780       0x80 drivers/built-in.o
 .rodata.rockchip_crypto_ops
                0x0000000000027800       0x58 drivers/built-in.o
 .rodata.rockchip_decom_ids
                0x0000000000027858       0x20 drivers/built-in.o
 .rodata.rockchip_decom_ops
                0x0000000000027878       0x20 drivers/built-in.o
 .rodata.rockchip_dwmmc_ids
                0x0000000000027898       0x30 drivers/built-in.o
 .rodata.rockchip_gpio_ids
                0x00000000000278c8       0x20 drivers/built-in.o
 .rodata.rockchip_otp_ids
                0x00000000000278e8       0xb0 drivers/built-in.o
 .rodata.rockchip_otp_ops
                0x0000000000027998       0x20 drivers/built-in.o
 .rodata.rockchip_perpin_drv_list
                0x00000000000279b8      0x160 drivers/built-in.o
 .rodata.rockchip_pinctrl_dt_match
                0x0000000000027b18      0x110 drivers/built-in.o
 .rodata.rockchip_pinctrl_ops
                0x0000000000027c28       0x88 drivers/built-in.o
                0x0000000000027c28                rockchip_pinctrl_ops
 .rodata.rockchip_pull_list
                0x0000000000027cb0       0x40 drivers/built-in.o
 .rodata.rockchip_secure_otp_ops
                0x0000000000027cf0       0x20 drivers/built-in.o
 .rodata.rockchip_sfc_ids
                0x0000000000027d10       0x20 drivers/built-in.o
 .rodata.rockchip_sfc_mem_ops
                0x0000000000027d30       0x18 drivers/built-in.o
 .rodata.rockchip_sfc_ops
                0x0000000000027d48       0x48 drivers/built-in.o
 .rodata.rockchip_spi_ids
                0x0000000000027d90       0x60 drivers/built-in.o
 .rodata.rockchip_spi_ops
                0x0000000000027df0       0x48 drivers/built-in.o
 .rodata.root_info
                0x0000000000027e38       0x10 drivers/built-in.o
 .rodata.rv1108_pin_ctrl
                0x0000000000027e48       0x80 drivers/built-in.o
 .rodata.rv1126_data
                0x0000000000027ec8       0x10 drivers/built-in.o
 .rodata.rv1126_pin_ctrl
                0x0000000000027ed8       0x80 drivers/built-in.o
 .rodata.s35ml04g3_ooblayout
                0x0000000000027f58       0x10 drivers/built-in.o
 .rodata.scmi_clk_ops
                0x0000000000027f68       0x50 drivers/built-in.o
 .rodata.scmi_smccc_ids
                0x0000000000027fb8       0x20 drivers/built-in.o
 .rodata.sd_au_size
                0x0000000000027fd8       0x40 drivers/built-in.o
 .rodata.sdhci_ids
                0x0000000000028018       0x40 drivers/built-in.o
 .rodata.sdhci_ops
                0x0000000000028058       0x30 drivers/built-in.o
                0x0000000000028058                sdhci_ops
 .rodata.sgm7000i_ooblayout
                0x0000000000028088       0x10 drivers/built-in.o
 .rodata.silicongo_spinand_manuf_ops
                0x0000000000028098       0x10 drivers/built-in.o
 .rodata.silicongo_spinand_manufacturer
                0x00000000000280a8       0x28 drivers/built-in.o
                0x00000000000280a8                silicongo_spinand_manufacturer
 .rodata.silicongo_spinand_table
                0x00000000000280d0       0x78 drivers/built-in.o
 .rodata.skyhigh_spinand_manuf_ops
                0x0000000000028148       0x10 drivers/built-in.o
 .rodata.skyhigh_spinand_manufacturer
                0x0000000000028158       0x28 drivers/built-in.o
                0x0000000000028158                skyhigh_spinand_manufacturer
 .rodata.skyhigh_spinand_table
                0x0000000000028180       0x78 drivers/built-in.o
 .rodata.soc_data_base
                0x00000000000281f8       0x10 drivers/built-in.o
 .rodata.soc_data_base_sm
                0x0000000000028208       0x10 drivers/built-in.o
 .rodata.soc_data_cryptov3
                0x0000000000028218       0x10 drivers/built-in.o
 .rodata.soc_data_rk1808
                0x0000000000028228       0x10 drivers/built-in.o
 .rodata.spi_flash_std_ids
                0x0000000000028238       0x20 drivers/built-in.o
 .rodata.spi_flash_std_ops
                0x0000000000028258       0x20 drivers/built-in.o
 .rodata.spi_nor_3to4_erase.8259
                0x0000000000028278        0x6 drivers/built-in.o
 *fill*         0x000000000002827e        0x2 
 .rodata.spi_nor_3to4_program.8255
                0x0000000000028280        0xa drivers/built-in.o
 *fill*         0x000000000002828a        0x6 
 .rodata.spi_nor_3to4_read.8251
                0x0000000000028290       0x16 drivers/built-in.o
 *fill*         0x00000000000282a6        0x2 
 .rodata.spi_nor_ids
                0x00000000000282a8      0xc60 drivers/built-in.o
                0x00000000000282a8                spi_nor_ids
 .rodata.spinand_ids
                0x0000000000028f08       0x20 drivers/built-in.o
 .rodata.spinand_manufacturers
                0x0000000000028f28       0x88 drivers/built-in.o
 .rodata.spinand_noecc_ooblayout
                0x0000000000028fb0       0x10 drivers/built-in.o
 .rodata.spinand_ops
                0x0000000000028fc0       0x18 drivers/built-in.o
 .rodata.spl_bootdev_map
                0x0000000000028fd8       0x4c arch/arm/mach-rockchip/built-in.o
 *fill*         0x0000000000029024        0x4 
 .rodata.tc58cxgxsx_ooblayout
                0x0000000000029028       0x10 drivers/built-in.o
 .rodata.toshiba_spinand_manuf_ops
                0x0000000000029038       0x10 drivers/built-in.o
 .rodata.toshiba_spinand_manufacturer
                0x0000000000029048       0x28 drivers/built-in.o
                0x0000000000029048                toshiba_spinand_manufacturer
 .rodata.toshiba_spinand_table
                0x0000000000029070      0x438 drivers/built-in.o
 .rodata.tuning_blk_pattern_4bit
                0x00000000000294a8       0x40 drivers/built-in.o
 .rodata.tuning_blk_pattern_8bit
                0x00000000000294e8       0x80 drivers/built-in.o
 .rodata.tx25g01_ooblayout
                0x0000000000029568       0x10 drivers/built-in.o
 .rodata.uimage_comp
                0x0000000000029578       0xa8 common/built-in.o
 .rodata.uimage_os
                0x0000000000029620      0x108 common/built-in.o
 .rodata.unim_spinand_manuf_ops
                0x0000000000029728       0x10 drivers/built-in.o
 .rodata.unim_spinand_manufacturer
                0x0000000000029738       0x28 drivers/built-in.o
                0x0000000000029738                unim_spinand_manufacturer
 .rodata.unim_spinand_table
                0x0000000000029760       0x78 drivers/built-in.o
 .rodata.update_cache_variants
                0x00000000000297d8      0x110 drivers/built-in.o
 .rodata.w25m02gv_ooblayout
                0x00000000000298e8       0x10 drivers/built-in.o
 .rodata.w25n02kv_ooblayout
                0x00000000000298f8       0x10 drivers/built-in.o
 .rodata.winbond_spinand_manuf_ops
                0x0000000000029908       0x10 drivers/built-in.o
 .rodata.winbond_spinand_manufacturer
                0x0000000000029918       0x28 drivers/built-in.o
                0x0000000000029918                winbond_spinand_manufacturer
 .rodata.winbond_spinand_table
                0x0000000000029940      0x3c0 drivers/built-in.o
 .rodata.write_cache_variants
                0x0000000000029d00      0x110 drivers/built-in.o
 .rodata.xt26g01b_ooblayout
                0x0000000000029e10       0x10 drivers/built-in.o
 .rodata.xt26g01c_ooblayout
                0x0000000000029e20       0x10 drivers/built-in.o
 .rodata.xt26g02b_ooblayout
                0x0000000000029e30       0x10 drivers/built-in.o
 .rodata.xt26g0xa_ooblayout
                0x0000000000029e40       0x10 drivers/built-in.o
 .rodata.xtx_spinand_manuf_ops
                0x0000000000029e50       0x10 drivers/built-in.o
 .rodata.xtx_spinand_manufacturer
                0x0000000000029e60       0x28 drivers/built-in.o
                0x0000000000029e60                xtx_spinand_manufacturer
 .rodata.xtx_spinand_table
                0x0000000000029e88      0x438 drivers/built-in.o
 .rodata.crypto_sha_final
                0x000000000002a2c0       0x10 drivers/built-in.o
 .rodata.fdt_next_tag
                0x000000000002a2d0        0x9 lib/built-in.o
 *fill*         0x000000000002a2d9        0x3 
 .rodata.mmc_set_capacity
                0x000000000002a2dc        0x8 drivers/built-in.o
 .rodata.mmc_startup
                0x000000000002a2e4       0x18 drivers/built-in.o
 .rodata.rk3588_center_get_clk.isra.0
                0x000000000002a2fc        0x4 drivers/built-in.o
 .rodata.rk3588_clk_scmi_get_rate
                0x000000000002a300        0xf drivers/built-in.o
 *fill*         0x000000000002a30f        0x1 
 .rodata.rk3588_clk_scmi_set_rate
                0x000000000002a310       0x1e drivers/built-in.o
 *fill*         0x000000000002a32e        0x2 
 .rodata.rk3588_clk_set_parent
                0x000000000002a330        0x7 drivers/built-in.o
 *fill*         0x000000000002a337        0x1 
 .rodata.rk3588_clk_set_rate
                0x000000000002a338        0x8 drivers/built-in.o
 .rodata.rk3588_spi_get_clk.isra.2
                0x000000000002a340        0x5 drivers/built-in.o
 *fill*         0x000000000002a345        0x3 
 .rodata.rockchip_decom_ioctl
                0x000000000002a348        0x5 drivers/built-in.o
 *fill*         0x000000000002a34d        0x3 
 .rodata.rockchip_pinctrl_set_state
                0x000000000002a350       0x38 drivers/built-in.o
 .rodata.spi_check_buswidth_req.isra.0
                0x000000000002a388        0x8 drivers/built-in.o
 .rodata.__of_parse_phandle_with_args.constprop.2.str1.1
                0x000000000002a390       0x31 drivers/built-in.o
 .rodata.__put_mtd_device.str1.1
                0x000000000002a3c1       0x16 drivers/built-in.o
                                         0x2f (size before relaxing)
 .rodata.add_mtd_device.str1.1
                0x000000000002a3d7       0x28 drivers/built-in.o
 .rodata.atags_bad_magic.str1.1
                0x000000000002a3ff       0x1a arch/arm/mach-rockchip/built-in.o
 .rodata.atags_overflow.str1.1
                0x000000000002a419       0x11 arch/arm/mach-rockchip/built-in.o
 .rodata.blk_create_devicef.str1.1
                0x000000000002a42a        0x6 drivers/built-in.o
 .rodata.board_boot_order.str1.1
                0x000000000002a42a       0x2a arch/arm/mach-rockchip/built-in.o
 .rodata.board_fit_image_post_process.str1.1
                0x000000000002a454       0x2e arch/arm/mach-rockchip/built-in.o
 .rodata.board_init_f.str1.1
                0x000000000002a482       0x33 arch/arm/mach-rockchip/built-in.o
 .rodata.board_init_r.str1.1
                0x000000000002a4b5       0xc7 common/spl/built-in.o
 .rodata.check_reserved.str1.1
                0x000000000002a57c       0x27 drivers/built-in.o
                                         0x28 (size before relaxing)
 .rodata.clk_fixed_rate_ofdata_to_platdata.str1.1
                0x000000000002a5a3       0x10 drivers/built-in.o
 .rodata.clk_get_by_index.str1.1
                0x000000000002a5b3      0x10e drivers/built-in.o
                                          0x7 (size before relaxing)
 .rodata.clk_get_by_indexed_prop.str1.1
                0x000000000002a5b3        0xd drivers/built-in.o
 .rodata.clk_get_by_name.str1.1
                0x000000000002a5c0        0xc drivers/built-in.o
 .rodata.clk_set_defaults.str1.1
                0x000000000002a5cc       0x3c drivers/built-in.o
 .rodata.create_table.str1.1
                0x000000000002a608       0x62 arch/arm/cpu/armv8/built-in.o
 .rodata.crypto_algo_nbits.str1.1
                0x000000000002a66a       0x20 drivers/built-in.o
 .rodata.del_mtd_device.str1.1
                0x000000000002a68a       0x30 drivers/built-in.o
 .rodata.devfdt_get_addr_index.str1.1
                0x000000000002a6ba        0x4 drivers/built-in.o
 .rodata.device_probe.str1.1
                0x000000000002a6ba        0x8 drivers/built-in.o
 .rodata.dm_extended_scan_fdt.str1.1
                0x000000000002a6ba        0x8 drivers/built-in.o
 .rodata.dm_fdt_pre_reloc.str1.1
                0x000000000002a6c2       0x22 drivers/built-in.o
 .rodata.dm_gpio_get_value.str1.1
                0x000000000002a6e4        0xa drivers/built-in.o
 .rodata.dm_gpio_set_dir_flags.str1.1
                0x000000000002a6ee        0x8 drivers/built-in.o
 .rodata.dm_gpio_set_value.str1.1
                0x000000000002a6f6        0xa drivers/built-in.o
 .rodata.dm_mmc_send_cmd.str1.1
                0x000000000002a700       0x2b drivers/built-in.o
 .rodata.dm_scan_fdt_node.str1.1
                0x000000000002a72b        0x9 drivers/built-in.o
 .rodata.dm_spi_claim_bus.str1.1
                0x000000000002a72b       0x35 drivers/built-in.o
 .rodata.do_bad_error.str1.1
                0x000000000002a760       0x29 arch/arm/lib/built-in.o
 .rodata.do_bad_fiq.str1.1
                0x000000000002a789       0x27 arch/arm/lib/built-in.o
 .rodata.do_bad_irq.str1.1
                0x000000000002a7b0       0x27 arch/arm/lib/built-in.o
 .rodata.do_bad_sync.str1.1
                0x000000000002a7d7       0x48 arch/arm/lib/built-in.o
 .rodata.do_error.str1.1
                0x000000000002a81f       0x48 arch/arm/lib/built-in.o
                                         0x1d (size before relaxing)
 .rodata.do_fiq.str1.1
                0x000000000002a81f       0x48 arch/arm/lib/built-in.o
                                         0x1b (size before relaxing)
 .rodata.do_irq.str1.1
                0x000000000002a81f       0x48 arch/arm/lib/built-in.o
                                         0x1b (size before relaxing)
 .rodata.do_sync.str1.1
                0x000000000002a81f       0x48 arch/arm/lib/built-in.o
                                         0x29 (size before relaxing)
 .rodata.dump_core_stack.str1.1
                0x000000000002a81f       0xc4 arch/arm/lib/built-in.o
                                         0xd6 (size before relaxing)
 .rodata.dwmci_get_cd.str1.1
                0x000000000002a8e3        0x9 drivers/built-in.o
 .rodata.dwmci_setup_cfg.str1.1
                0x000000000002a8ec       0x1b drivers/built-in.o
 .rodata.fdt_address_cells.str1.1
                0x000000000002a907        0xf lib/built-in.o
 .rodata.fdt_find_or_add_subnode.str1.1
                0x000000000002a916        0xc common/built-in.o
 .rodata.fdt_fixup_memory_banks.str1.1
                0x000000000002a922       0x8c common/built-in.o
 .rodata.fdt_get_alias_namelen.str1.1
                0x000000000002a9ae        0x9 lib/built-in.o
 .rodata.fdt_get_phandle.str1.1
                0x000000000002a9b7        0xe lib/built-in.o
                                         0x16 (size before relaxing)
 .rodata.fdt_node_check_compatible.str1.1
                0x000000000002a9c5        0xb lib/built-in.o
 .rodata.fdt_record_loadable.str1.1
                0x000000000002a9d0       0x8c common/built-in.o
                                         0x36 (size before relaxing)
 .rodata.fdt_size_cells.str1.1
                0x000000000002a9d0        0xc lib/built-in.o
 .rodata.fdt_strerror.str1.1
                0x000000000002a9d0       0x31 lib/built-in.o
 .rodata.fdt_support_default_count_cells.str1.1
                0x000000000002aa01        0xc common/built-in.o
 .rodata.fdt_translate_address.str1.1
                0x000000000002aa0d       0x22 common/built-in.o
 .rodata.fdtdec_add_aliases_for_id.str1.1
                0x000000000002aa2f        0x9 lib/built-in.o
 .rodata.fdtdec_get_is_enabled.str1.1
                0x000000000002aa2f        0xc lib/built-in.o
 .rodata.fdtdec_prepare_fdt.str1.1
                0x000000000002aa3b        0xd lib/built-in.o
 .rodata.find_mmc_device.str1.1
                0x000000000002aa48       0x19 drivers/built-in.o
 .rodata.find_mtd_device.str1.1
                0x000000000002aa61       0x19 common/spl/built-in.o
 .rodata.fit_board_verify_required_sigs.str1.1
                0x000000000002aa7a       0x35 arch/arm/mach-rockchip/built-in.o
 .rodata.fit_find_config_node.str1.1
                0x000000000002aaaf       0x34 common/built-in.o
                                         0x48 (size before relaxing)
 .rodata.fit_get_desc.str1.1
                0x000000000002aae3        0xc common/built-in.o
 .rodata.fit_get_totalsize.str1.1
                0x000000000002aae3        0xa common/built-in.o
 .rodata.fit_image_check_hash.str1.1
                0x000000000002aaed       0xa8 common/built-in.o
                                         0xad (size before relaxing)
 .rodata.fit_image_get_address.str1.1
                0x000000000002ab95       0x1d common/built-in.o
 .rodata.fit_image_get_comp.str1.1
                0x000000000002abb2        0xc common/built-in.o
 .rodata.fit_image_get_comp_addr.str1.1
                0x000000000002abb2        0x5 common/built-in.o
 .rodata.fit_image_get_data.str1.1
                0x000000000002abb7        0x5 common/built-in.o
 .rodata.fit_image_get_data_offset.str1.1
                0x000000000002abbc        0xc common/built-in.o
 .rodata.fit_image_get_data_position.str1.1
                0x000000000002abc8        0xe common/built-in.o
 .rodata.fit_image_get_data_size.str1.1
                0x000000000002abd6        0xa common/built-in.o
 .rodata.fit_image_get_load.str1.1
                0x000000000002abe0        0xa common/built-in.o
                                          0x5 (size before relaxing)
 .rodata.fit_image_get_os.str1.1
                0x000000000002abe0        0x3 common/built-in.o
 .rodata.fit_image_get_uncomp_digest.str1.1
                0x000000000002abe0        0x7 arch/arm/mach-rockchip/built-in.o
 .rodata.fit_image_hash_get_algo.str1.1
                0x000000000002abe7        0x5 common/built-in.o
 .rodata.fit_image_hash_get_value.str1.1
                0x000000000002abec        0x5 common/built-in.o
                                          0x6 (size before relaxing)
 .rodata.fit_image_verify_with_data.str1.1
                0x000000000002abec       0x53 common/built-in.o
                                         0x57 (size before relaxing)
 .rodata.genimg_get_comp_id.str1.1
                0x000000000002ac3f        0xc common/built-in.o
 .rodata.genimg_get_os_id.str1.1
                0x000000000002ac4b        0xc common/built-in.o
                                          0x3 (size before relaxing)
 .rodata.gpio_hog_ofdata_to_platdata.str1.1
                0x000000000002ac4b       0x72 drivers/built-in.o
                                         0x78 (size before relaxing)
 .rodata.gpio_post_bind.str1.1
                0x000000000002acbd       0x12 drivers/built-in.o
 .rodata.gpio_request_by_name_nodev.str1.1
                0x000000000002accf        0xc drivers/built-in.o
 .rodata.gpio_request_tail.isra.2.str1.1
                0x000000000002acdb        0xe drivers/built-in.o
 .rodata.hang.str1.1
                0x000000000002ace9       0x2a lib/built-in.o
 .rodata.hw_fit_calculate_hash.str1.1
                0x000000000002ad13       0x46 common/built-in.o
 .rodata.is_gpt_valid.str1.1
                0x000000000002ad59       0xea disk/built-in.o
 .rodata.lists_bind_fdt.str1.1
                0x000000000002ae43        0xb drivers/built-in.o
 .rodata.macronix_quad_enable.str1.1
                0x000000000002ae43       0x1b drivers/built-in.o
 .rodata.memalign_simple.str1.1
                0x000000000002ae5e       0x21 common/built-in.o
 .rodata.misc_decompress_cleanup.str1.1
                0x000000000002ae7f       0x27 drivers/built-in.o
 .rodata.misc_decompress_process.str1.1
                0x000000000002aea6       0x48 drivers/built-in.o
 .rodata.mmc_berase.str1.1
                0x000000000002aeee       0x5d drivers/built-in.o
 .rodata.mmc_bind.str1.1
                0x000000000002af4b        0x8 drivers/built-in.o
                                          0xc (size before relaxing)
 .rodata.mmc_bread.str1.1
                0x000000000002af53       0x66 drivers/built-in.o
 .rodata.mmc_erase_t.str1.1
                0x000000000002afb9       0x12 drivers/built-in.o
 .rodata.mmc_init.str1.1
                0x000000000002afcb       0x12 drivers/built-in.o
 .rodata.mmc_read_blocks.str1.1
                0x000000000002afdd       0x1b drivers/built-in.o
 .rodata.mmc_send_status.str1.1
                0x000000000002aff8       0x32 drivers/built-in.o
 .rodata.mmc_start_init.str1.1
                0x000000000002b02a       0x3f drivers/built-in.o
 .rodata.mmc_startup.str1.1
                0x000000000002b069       0x15 drivers/built-in.o
 .rodata.mmc_write_blocks.str1.1
                0x000000000002b07e       0x12 drivers/built-in.o
                                         0x59 (size before relaxing)
 .rodata.mtd_blk_map_table_init.str1.1
                0x000000000002b090       0x22 drivers/built-in.o
 .rodata.mtd_blk_probe.str1.1
                0x000000000002b0b2       0x15 drivers/built-in.o
                                         0x1a (size before relaxing)
 .rodata.mtd_map_read.isra.0.str1.1
                0x000000000002b0c7       0x43 drivers/built-in.o
 .rodata.mx35lf1ge4ab_ecc_get_status.str1.1
                0x000000000002b10a       0x20 drivers/built-in.o
                                         0x38 (size before relaxing)
 .rodata.nanddev_bbt_update.str1.1
                0x000000000002b12a       0x33 drivers/built-in.o
 .rodata.nanddev_read_bbt.str1.1
                0x000000000002b15d       0x16 drivers/built-in.o
 .rodata.ns16550_serial_ofdata_to_platdata.str1.1
                0x000000000002b173       0x3a drivers/built-in.o
                                         0x4a (size before relaxing)
 .rodata.of_address_to_resource.str1.1
                0x000000000002b1ad        0xa drivers/built-in.o
 .rodata.of_device_is_available.str1.1
                0x000000000002b1b7        0xc drivers/built-in.o
 .rodata.of_device_is_compatible.str1.1
                0x000000000002b1b7        0xb drivers/built-in.o
 .rodata.of_find_node_opts_by_path.str1.1
                0x000000000002b1b7        0x5 drivers/built-in.o
 .rodata.of_get_address.str1.1
                0x000000000002b1bc        0x4 drivers/built-in.o
 .rodata.of_match_bus.str1.1
                0x000000000002b1bc       0x30 drivers/built-in.o
 .rodata.of_n_addr_cells.str1.1
                0x000000000002b1ec        0xf drivers/built-in.o
 .rodata.of_n_size_cells.str1.1
                0x000000000002b1ec        0xc drivers/built-in.o
 .rodata.of_translate_address.str1.1
                0x000000000002b1ec        0x7 drivers/built-in.o
 .rodata.ofnode_pre_reloc.str1.1
                0x000000000002b1ec       0x22 drivers/built-in.o
 .rodata.part_get_info_efi.str1.1
                0x000000000002b1ec       0x6c disk/built-in.o
                                         0x76 (size before relaxing)
 .rodata.pinconfig_post_bind.str1.1
                0x000000000002b258        0xa drivers/built-in.o
                                         0x15 (size before relaxing)
 .rodata.pinctrl_select_state.str1.1
                0x000000000002b262       0x31 drivers/built-in.o
 .rodata.preloader_console_init.str1.1
                0x000000000002b293       0x2e common/spl/built-in.o
 .rodata.psci_bind.str1.1
                0x000000000002b2c1       0x28 drivers/built-in.o
 .rodata.psci_probe.str1.1
                0x000000000002b2e9       0x45 drivers/built-in.o
                                         0x49 (size before relaxing)
 .rodata.regmap_init_mem.str1.1
                0x000000000002b32e        0x4 drivers/built-in.o
 .rodata.reset_get_by_index.str1.1
                0x000000000002b32e       0x14 drivers/built-in.o
 .rodata.reset_get_by_name.str1.1
                0x000000000002b342        0xc drivers/built-in.o
 .rodata.rk3036_pll_set_rate.str1.1
                0x000000000002b34e       0x3a drivers/built-in.o
 .rodata.rk3308bs_otp_wait_status.isra.0.str1.1
                0x000000000002b388       0x1e drivers/built-in.o
 .rodata.rk3399_emmc_get_phy.str1.1
                0x000000000002b3a6       0x1e drivers/built-in.o
                                         0x22 (size before relaxing)
 .rodata.rk3399_sdhci_emmc_set_clock.str1.1
                0x000000000002b3c4       0x2b drivers/built-in.o
 .rodata.rk3588_clk_bind.str1.1
                0x000000000002b3ef       0x30 drivers/built-in.o
 .rodata.rk3588_clk_probe.str1.1
                0x000000000002b3ef       0x30 drivers/built-in.o
 .rodata.rk3588_clk_set_parent.str1.1
                0x000000000002b41f       0x20 drivers/built-in.o
 .rodata.rk3588_clk_set_rate.str1.1
                0x000000000002b43f        0xd drivers/built-in.o
 .rodata.rk3588_secure_otp_read.str1.1
                0x000000000002b44c       0x3f drivers/built-in.o
 .rodata.rk3588_secure_otp_write.str1.1
                0x000000000002b48b       0x4d drivers/built-in.o
 .rodata.rk3588_set_schmitt.str1.1
                0x000000000002b4d8       0x2a drivers/built-in.o
                                         0x43 (size before relaxing)
 .rodata.rk_exptmod.str1.1
                0x000000000002b502       0x1d drivers/built-in.o
 .rodata.rockchip_crypto_ofdata_to_platdata.str1.1
                0x000000000002b51f       0x8a drivers/built-in.o
                                         0xa1 (size before relaxing)
 .rodata.rockchip_crypto_probe.str1.1
                0x000000000002b5a9       0x48 drivers/built-in.o
 .rodata.rockchip_crypto_sha_final.str1.1
                0x000000000002b5f1       0x2e drivers/built-in.o
 .rodata.rockchip_decom_ioctl.str1.1
                0x000000000002b61f       0x18 drivers/built-in.o
 .rodata.rockchip_decom_ofdata_to_platdata.str1.1
                0x000000000002b637        0xc drivers/built-in.o
 .rodata.rockchip_decom_probe.str1.1
                0x000000000002b643        0x8 drivers/built-in.o
 .rodata.rockchip_dwmmc_execute_tuning.str1.1
                0x000000000002b64b       0x14 drivers/built-in.o
 .rodata.rockchip_dwmmc_ofdata_to_platdata.str1.1
                0x000000000002b65f       0x36 drivers/built-in.o
                                         0x4e (size before relaxing)
 .rodata.rockchip_dwmmc_probe.str1.1
                0x000000000002b695       0x2f drivers/built-in.o
 .rodata.rockchip_emmc_set_clock.str1.1
                0x000000000002b6c4       0x4e drivers/built-in.o
 .rodata.rockchip_get_pll_settings.str1.1
                0x000000000002b6c4       0x5b drivers/built-in.o
 .rodata.rockchip_gpio_probe.str1.1
                0x000000000002b71f       0x6d drivers/built-in.o
 .rodata.rockchip_otp_ecc_enable.constprop.5.str1.1
                0x000000000002b78c       0x1e drivers/built-in.o
 .rodata.rockchip_pinctrl_probe.str1.1
                0x000000000002b7aa       0x6e drivers/built-in.o
                                         0xb8 (size before relaxing)
 .rodata.rockchip_pinctrl_set_state.str1.1
                0x000000000002b818       0x31 drivers/built-in.o
                                         0x3f (size before relaxing)
 .rodata.rockchip_pll_get_rate.str1.1
                0x000000000002b849       0x26 drivers/built-in.o
 .rodata.rockchip_pll_set_rate.str1.1
                0x000000000002b86f       0x15 drivers/built-in.o
 .rodata.rockchip_px30_otp_read.str1.1
                0x000000000002b884       0x20 drivers/built-in.o
 .rodata.rockchip_reset_probe.str1.1
                0x000000000002b8a4        0x4 drivers/built-in.o
 .rodata.rockchip_rk3308bs_otp_read.str1.1
                0x000000000002b8a4       0x8a drivers/built-in.o
 .rodata.rockchip_rv1126_otp_init.str1.1
                0x000000000002b92e       0x37 drivers/built-in.o
 .rodata.rockchip_rv1126_otp_read.str1.1
                0x000000000002b965       0x1e drivers/built-in.o
 .rodata.rockchip_sdhci_probe.str1.1
                0x000000000002b983       0x55 drivers/built-in.o
                                         0x7c (size before relaxing)
 .rodata.rockchip_secure_otp_ofdata_to_platdata.str1.1
                0x000000000002b9d8       0x23 drivers/built-in.o
 .rodata.rockchip_sfc_exec_op.str1.1
                0x000000000002b9fb       0x20 drivers/built-in.o
 .rodata.rockchip_sfc_exec_op_bypass.isra.9.str1.1
                0x000000000002ba1b       0x19 drivers/built-in.o
 .rodata.rockchip_sfc_ofdata_to_platdata.str1.1
                0x000000000002ba34       0x4f drivers/built-in.o
 .rodata.rockchip_sfc_reset.isra.7.str1.1
                0x000000000002ba83       0x1a drivers/built-in.o
 .rodata.rockchip_sfc_set_speed.str1.1
                0x000000000002ba9d       0x6f drivers/built-in.o
 .rodata.rockchip_sfc_wait_for_dma_finished.str1.1
                0x000000000002bb0c        0xd drivers/built-in.o
 .rodata.rockchip_sfc_xfer_done.constprop.13.str1.1
                0x000000000002bb19       0x17 drivers/built-in.o
 .rodata.rockchip_spi_ofdata_to_platdata.str1.1
                0x000000000002bb30       0xba drivers/built-in.o
                                         0xcc (size before relaxing)
 .rodata.save_boot_params.str1.1
                0x000000000002bbea       0x30 arch/arm/mach-rockchip/built-in.o
 .rodata.scmi_bind_protocols.str1.1
                0x000000000002bc1a        0x4 drivers/built-in.o
 .rodata.sdhci_probe.str1.1
                0x000000000002bc1a       0x24 drivers/built-in.o
 .rodata.sdhci_reset.isra.3.str1.1
                0x000000000002bc3e       0x21 drivers/built-in.o
 .rodata.sdhci_send_command.str1.1
                0x000000000002bc5f       0x91 drivers/built-in.o
                                         0x9b (size before relaxing)
 .rodata.sdhci_set_clock.str1.1
                0x000000000002bcf0       0x4e drivers/built-in.o
 .rodata.sdhci_setup_cfg.str1.1
                0x000000000002bd3e       0x5f drivers/built-in.o
 .rodata.setup_pgtables.str1.1
                0x000000000002bd9d       0x2d arch/arm/cpu/armv8/built-in.o
 .rodata.show_regs.str1.1
                0x000000000002bdca       0x50 arch/arm/lib/built-in.o
                                         0x52 (size before relaxing)
 .rodata.simple_bus_post_bind.str1.1
                0x000000000002be1a        0x7 drivers/built-in.o
 .rodata.spi_flash_mtd_register.str1.1
                0x000000000002be1a        0x6 drivers/built-in.o
 .rodata.spi_flash_mtd_unregister.str1.1
                0x000000000002be20       0x5c drivers/built-in.o
 .rodata.spi_flash_probe_bus_cs.str1.1
                0x000000000002be7c        0xa drivers/built-in.o
                                         0x18 (size before relaxing)
 .rodata.spi_flash_std_bind.str1.1
                0x000000000002be86       0x1c drivers/built-in.o
                                         0x28 (size before relaxing)
 .rodata.spi_flash_std_erase.str1.1
                0x000000000002bea2       0x34 drivers/built-in.o
 .rodata.spi_flash_std_probe.str1.1
                0x000000000002bed6       0x22 drivers/built-in.o
 .rodata.spi_nor_scan.str1.1
                0x000000000002bef8       0x6d drivers/built-in.o
 .rodata.spi_nor_wait_till_ready.str1.1
                0x000000000002bf65       0x78 drivers/built-in.o
 .rodata.spi_post_probe.str1.1
                0x000000000002bfdd       0x12 drivers/built-in.o
 .rodata.spi_slave_ofdata_to_platdata.str1.1
                0x000000000002bfef       0x5a drivers/built-in.o
                                         0x5e (size before relaxing)
 .rodata.spinand_bind.str1.1
                0x000000000002c049       0x28 drivers/built-in.o
 .rodata.spinand_probe.str1.1
                0x000000000002c049       0x9a drivers/built-in.o
 .rodata.spinand_upd_cfg.str1.1
                0x000000000002c0e3       0x1c drivers/built-in.o
                                         0x34 (size before relaxing)
 .rodata.spl_cleanup_before_jump.str1.1
                0x000000000002c0ff       0x14 common/spl/built-in.o
 .rodata.spl_fit_append_fdt.str1.1
                0x000000000002c113        0x4 common/spl/built-in.o
 .rodata.spl_fit_get_image_name.isra.0.str1.1
                0x000000000002c117       0x39 common/spl/built-in.o
 .rodata.spl_fit_images_find.str1.1
                0x000000000002c150        0xc common/spl/built-in.o
                                          0xf (size before relaxing)
 .rodata.spl_fit_images_get_entry.str1.1
                0x000000000002c15c       0x16 common/spl/built-in.o
 .rodata.spl_hang_reset.str1.1
                0x000000000002c172       0x20 arch/arm/mach-rockchip/built-in.o
 .rodata.spl_load_fit_image.str1.1
                0x000000000002c192       0x78 common/spl/built-in.o
 .rodata.spl_load_simple_fit.str1.1
                0x000000000002c20a       0xb4 common/spl/built-in.o
                                         0xc5 (size before relaxing)
 .rodata.spl_mmc_find_device.str1.1
                0x000000000002c2be       0x78 common/spl/built-in.o
 .rodata.spl_mmc_load_image.str1.1
                0x000000000002c336       0x7e common/spl/built-in.o
                                         0x7f (size before relaxing)
 .rodata.spl_mtd_load_image.str1.1
                0x000000000002c3b4       0x23 common/spl/built-in.o
                                         0x29 (size before relaxing)
 .rodata.spl_set_header_raw_uboot.str1.1
                0x000000000002c3d7        0x7 common/spl/built-in.o
 .rodata.split_block.str1.1
                0x000000000002c3de       0x74 arch/arm/cpu/armv8/built-in.o
 .rodata.sst26_lock_ctl.str1.1
                0x000000000002c452       0xb1 drivers/built-in.o
 .rodata.str1.1
                0x000000000002c503      0x105 arch/arm/mach-rockchip/built-in.o
 .rodata.str1.1
                0x000000000002c608       0x20 common/spl/built-in.o
 .rodata.str1.1
                0x000000000002c628      0x64a common/built-in.o
                                        0x6a8 (size before relaxing)
 .rodata.str1.1
                0x000000000002cc72      0x486 lib/built-in.o
 .rodata.str1.1
                0x000000000002d0f8       0x17 disk/built-in.o
                                         0x1a (size before relaxing)
 .rodata.str1.1
                0x000000000002d10f     0x11e9 drivers/built-in.o
                                       0x12eb (size before relaxing)
 .rodata.tc58cxgxsx_ecc_get_status.str1.1
                0x000000000002e2f8       0x1f drivers/built-in.o
                                         0x37 (size before relaxing)
 .rodata.uuid_bin_to_str.str1.1
                0x000000000002e317        0x5 lib/built-in.o
 .rodata.validate_gpt_entries.str1.1
                0x000000000002e317       0x40 disk/built-in.o
 .rodata.validate_gpt_header.str1.1
                0x000000000002e357      0x10e disk/built-in.o

.rela.dyn       0x000000000002e468        0x0
 .rela.iplt     0x000000000002e468        0x0 arch/arm/cpu/armv8/start.o

.data           0x000000000002e468     0x5bf8
                0x000000000002e468                . = ALIGN (0x8)
 *(.data*)
 .data          0x000000000002e468       0x68 arch/arm/mach-rockchip/built-in.o
 .data.gpio4d_iomux_sel_l
                0x000000000002e4d0        0x4 arch/arm/mach-rockchip/built-in.o
 *fill*         0x000000000002e4d4        0x4 
 .data.mem_map  0x000000000002e4d8        0x8 arch/arm/mach-rockchip/built-in.o
                0x000000000002e4d8                mem_map
 .data.rk3588_mem_map
                0x000000000002e4e0       0x80 arch/arm/mach-rockchip/built-in.o
 .data          0x000000000002e560       0xb0 common/spl/built-in.o
 .data.of_busses
                0x000000000002e610       0x30 common/built-in.o
 .data.system_guid
                0x000000000002e640       0x10 disk/built-in.o
 .data.rk3588_clk_ops
                0x000000000002e650       0x50 drivers/built-in.o
 .data.rk3588_pll_clks
                0x000000000002e6a0      0x1b0 drivers/built-in.o
 .data.rk3588_pll_rates
                0x000000000002e850      0x480 drivers/built-in.o
 .data.aliases_lookup
                0x000000000002ecd0       0x10 drivers/built-in.o
                0x000000000002ecd0                aliases_lookup
 .data.of_busses
                0x000000000002ece0       0x38 drivers/built-in.o
 .data.rockchip_sysreset
                0x000000000002ed18       0x10 drivers/built-in.o
 .data.cmd_timeout.7406
                0x000000000002ed28        0x4 drivers/built-in.o
 *fill*         0x000000000002ed2c        0x4 
 .data.rockchip_sdhci_ops
                0x000000000002ed30       0x28 drivers/built-in.o
 .data.px30_mux_route_data
                0x000000000002ed58       0x60 drivers/built-in.o
 .data.px30_pin_banks
                0x000000000002edb8      0x1e0 drivers/built-in.o
 .data.rk1808_mux_route_data
                0x000000000002ef98       0x3c drivers/built-in.o
 *fill*         0x000000000002efd4        0x4 
 .data.rk1808_pin_banks
                0x000000000002efd8      0x258 drivers/built-in.o
 .data.rk2928_pin_banks
                0x000000000002f230      0x1e0 drivers/built-in.o
 .data.rk3036_pin_banks
                0x000000000002f410      0x168 drivers/built-in.o
 .data.rk3066a_pin_banks
                0x000000000002f578      0x2d0 drivers/built-in.o
 .data.rk3066b_pin_banks
                0x000000000002f848      0x1e0 drivers/built-in.o
 .data.rk3128_mux_recalced_data
                0x000000000002fa28       0x3c drivers/built-in.o
 *fill*         0x000000000002fa64        0x4 
 .data.rk3128_mux_route_data
                0x000000000002fa68       0x54 drivers/built-in.o
 *fill*         0x000000000002fabc        0x4 
 .data.rk3128_pin_banks
                0x000000000002fac0      0x1e0 drivers/built-in.o
 .data.rk3188_pin_banks
                0x000000000002fca0      0x1e0 drivers/built-in.o
 .data.rk3228_mux_route_data
                0x000000000002fe80       0xd8 drivers/built-in.o
 .data.rk3228_pin_banks
                0x000000000002ff58      0x1e0 drivers/built-in.o
 .data.rk3288_mux_route_data
                0x0000000000030138       0x18 drivers/built-in.o
 .data.rk3288_pin_banks
                0x0000000000030150      0x438 drivers/built-in.o
 .data.rk3308_mux_recalced_data
                0x0000000000030588       0x78 drivers/built-in.o
 .data.rk3308_mux_route_data
                0x0000000000030600       0x9c drivers/built-in.o
 *fill*         0x000000000003069c        0x4 
 .data.rk3308_pin_banks
                0x00000000000306a0      0x258 drivers/built-in.o
 .data.rk3308_pin_ctrl
                0x00000000000308f8       0x80 drivers/built-in.o
 .data.rk3328_mux_recalced_data
                0x0000000000030978       0x24 drivers/built-in.o
 *fill*         0x000000000003099c        0x4 
 .data.rk3328_mux_route_data
                0x00000000000309a0       0x90 drivers/built-in.o
 .data.rk3328_pin_banks
                0x0000000000030a30      0x1e0 drivers/built-in.o
 .data.rk3368_pin_banks
                0x0000000000030c10      0x1e0 drivers/built-in.o
 .data.rk3399_mux_route_data
                0x0000000000030df0       0x3c drivers/built-in.o
 *fill*         0x0000000000030e2c        0x4 
 .data.rk3399_pin_banks
                0x0000000000030e30      0x258 drivers/built-in.o
 .data.rockchip_pinctrl_ops
                0x0000000000031088       0x88 drivers/built-in.o
 .data.rv1108_mux_recalced_data
                0x0000000000031110       0x78 drivers/built-in.o
 .data.rv1108_pin_banks
                0x0000000000031188      0x1e0 drivers/built-in.o
 .data.rv1126_mux_recalced_data
                0x0000000000031368       0x30 drivers/built-in.o
 .data.rv1126_mux_route_data
                0x0000000000031398      0x324 drivers/built-in.o
 *fill*         0x00000000000316bc        0x4 
 .data.rv1126_pin_banks
                0x00000000000316c0      0x258 drivers/built-in.o
 .data.rk3588_pin_banks
                0x0000000000031918      0x258 drivers/built-in.o
 .data.bbt_pattern
                0x0000000000031b70        0x4 drivers/built-in.o
 *fill*         0x0000000000031b74        0x4 
 .data.__compound_literal.0
                0x0000000000031b78     0x1500 drivers/built-in.o
 .data.__compound_literal.2
                0x0000000000033078      0x818 drivers/built-in.o
 .data.__compound_literal.4
                0x0000000000033890      0x738 drivers/built-in.o
 .data.__compound_literal.6
                0x0000000000033fc8       0x70 drivers/built-in.o
 .data.rockchip_reset_ops
                0x0000000000034038       0x28 drivers/built-in.o
                0x0000000000034038                rockchip_reset_ops

.igot.plt       0x0000000000034060        0x0
 .igot.plt      0x0000000000034060        0x0 arch/arm/cpu/armv8/start.o

.__rel_dyn_end  0x0000000000034060        0x0
 .__rel_dyn_end
                0x0000000000034060        0x0 arch/arm/lib/built-in.o

.__rel_dyn_start
                0x0000000000034060        0x0
 .__rel_dyn_start
                0x0000000000034060        0x0 arch/arm/lib/built-in.o

.u_boot_list    0x0000000000034060     0x1bc0
                0x0000000000034060                . = ALIGN (0x8)
 *(SORT(.u_boot_list*))
 .u_boot_list_2_cmd_1
                0x0000000000034060        0x0 common/built-in.o
 .u_boot_list_2_cmd_3
                0x0000000000034060        0x0 common/built-in.o
 .u_boot_list_2_driver_1
                0x0000000000034060        0x0 drivers/built-in.o
 .u_boot_list_2_driver_2_arasan_sdhci_drv
                0x0000000000034060       0x78 drivers/built-in.o
                0x0000000000034060                _u_boot_list_2_driver_2_arasan_sdhci_drv
 .u_boot_list_2_driver_2_clk_fixed_rate
                0x00000000000340d8       0x78 drivers/built-in.o
                0x00000000000340d8                _u_boot_list_2_driver_2_clk_fixed_rate
 .u_boot_list_2_driver_2_firmware
                0x0000000000034150       0x78 drivers/built-in.o
                0x0000000000034150                _u_boot_list_2_driver_2_firmware
 .u_boot_list_2_driver_2_generic_syscon
                0x00000000000341c8       0x78 drivers/built-in.o
                0x00000000000341c8                _u_boot_list_2_driver_2_generic_syscon
 .u_boot_list_2_driver_2_gpio_hog
                0x0000000000034240       0x78 drivers/built-in.o
                0x0000000000034240                _u_boot_list_2_driver_2_gpio_hog
 .u_boot_list_2_driver_2_gpio_rockchip
                0x00000000000342b8       0x78 drivers/built-in.o
                0x00000000000342b8                _u_boot_list_2_driver_2_gpio_rockchip
 .u_boot_list_2_driver_2_mmc
                0x0000000000034330       0x78 drivers/built-in.o
                0x0000000000034330                _u_boot_list_2_driver_2_mmc
 .u_boot_list_2_driver_2_mmc_blk
                0x00000000000343a8       0x78 drivers/built-in.o
                0x00000000000343a8                _u_boot_list_2_driver_2_mmc_blk
 .u_boot_list_2_driver_2_mod_exp_sw
                0x0000000000034420       0x78 drivers/built-in.o
                0x0000000000034420                _u_boot_list_2_driver_2_mod_exp_sw
 .u_boot_list_2_driver_2_mtd_blk
                0x0000000000034498       0x78 drivers/built-in.o
                0x0000000000034498                _u_boot_list_2_driver_2_mtd_blk
 .u_boot_list_2_driver_2_ns16550_serial
                0x0000000000034510       0x78 drivers/built-in.o
                0x0000000000034510                _u_boot_list_2_driver_2_ns16550_serial
 .u_boot_list_2_driver_2_pinconfig_generic
                0x0000000000034588       0x78 drivers/built-in.o
                0x0000000000034588                _u_boot_list_2_driver_2_pinconfig_generic
 .u_boot_list_2_driver_2_pinctrl_rk3588
                0x0000000000034600       0x78 drivers/built-in.o
                0x0000000000034600                _u_boot_list_2_driver_2_pinctrl_rk3588
 .u_boot_list_2_driver_2_pinctrl_rockchip
                0x0000000000034678       0x78 drivers/built-in.o
                0x0000000000034678                _u_boot_list_2_driver_2_pinctrl_rockchip
 .u_boot_list_2_driver_2_psci
                0x00000000000346f0       0x78 drivers/built-in.o
                0x00000000000346f0                _u_boot_list_2_driver_2_psci
 .u_boot_list_2_driver_2_rockchip_crypto_v2
                0x0000000000034768       0x78 drivers/built-in.o
                0x0000000000034768                _u_boot_list_2_driver_2_rockchip_crypto_v2
 .u_boot_list_2_driver_2_rockchip_dwmmc_drv
                0x00000000000347e0       0x78 drivers/built-in.o
                0x00000000000347e0                _u_boot_list_2_driver_2_rockchip_dwmmc_drv
 .u_boot_list_2_driver_2_rockchip_hw_decompress
                0x0000000000034858       0x78 drivers/built-in.o
                0x0000000000034858                _u_boot_list_2_driver_2_rockchip_hw_decompress
 .u_boot_list_2_driver_2_rockchip_otp
                0x00000000000348d0       0x78 drivers/built-in.o
                0x00000000000348d0                _u_boot_list_2_driver_2_rockchip_otp
 .u_boot_list_2_driver_2_rockchip_reset
                0x0000000000034948       0x78 drivers/built-in.o
                0x0000000000034948                _u_boot_list_2_driver_2_rockchip_reset
 .u_boot_list_2_driver_2_rockchip_rk3588_cru
                0x00000000000349c0       0x78 drivers/built-in.o
                0x00000000000349c0                _u_boot_list_2_driver_2_rockchip_rk3588_cru
 .u_boot_list_2_driver_2_rockchip_secure_otp
                0x0000000000034a38       0x78 drivers/built-in.o
                0x0000000000034a38                _u_boot_list_2_driver_2_rockchip_secure_otp
 .u_boot_list_2_driver_2_rockchip_sfc_driver
                0x0000000000034ab0       0x78 drivers/built-in.o
                0x0000000000034ab0                _u_boot_list_2_driver_2_rockchip_sfc_driver
 .u_boot_list_2_driver_2_rockchip_spi
                0x0000000000034b28       0x78 drivers/built-in.o
                0x0000000000034b28                _u_boot_list_2_driver_2_rockchip_spi
 .u_boot_list_2_driver_2_root_driver
                0x0000000000034ba0       0x78 drivers/built-in.o
                0x0000000000034ba0                _u_boot_list_2_driver_2_root_driver
 .u_boot_list_2_driver_2_scmi_clock
                0x0000000000034c18       0x78 drivers/built-in.o
                0x0000000000034c18                _u_boot_list_2_driver_2_scmi_clock
 .u_boot_list_2_driver_2_scmi_smccc
                0x0000000000034c90       0x78 drivers/built-in.o
                0x0000000000034c90                _u_boot_list_2_driver_2_scmi_smccc
 .u_boot_list_2_driver_2_simple_bus_drv
                0x0000000000034d08       0x78 drivers/built-in.o
                0x0000000000034d08                _u_boot_list_2_driver_2_simple_bus_drv
 .u_boot_list_2_driver_2_spi_flash_std
                0x0000000000034d80       0x78 drivers/built-in.o
                0x0000000000034d80                _u_boot_list_2_driver_2_spi_flash_std
 .u_boot_list_2_driver_2_spi_generic_drv
                0x0000000000034df8       0x78 drivers/built-in.o
                0x0000000000034df8                _u_boot_list_2_driver_2_spi_generic_drv
 .u_boot_list_2_driver_2_spinand
                0x0000000000034e70       0x78 drivers/built-in.o
                0x0000000000034e70                _u_boot_list_2_driver_2_spinand
 .u_boot_list_2_driver_2_syscon_rk3588
                0x0000000000034ee8       0x78 arch/arm/mach-rockchip/built-in.o
                0x0000000000034ee8                _u_boot_list_2_driver_2_syscon_rk3588
 .u_boot_list_2_driver_2_sysreset_rockchip
                0x0000000000034f60       0x78 drivers/built-in.o
                0x0000000000034f60                _u_boot_list_2_driver_2_sysreset_rockchip
 .u_boot_list_2_driver_3
                0x0000000000034fd8        0x0 drivers/built-in.o
 .u_boot_list_2_driver_info_1
                0x0000000000034fd8        0x0 drivers/built-in.o
 .u_boot_list_2_driver_info_2_mod_exp_sw
                0x0000000000034fd8       0x10 drivers/built-in.o
                0x0000000000034fd8                _u_boot_list_2_driver_info_2_mod_exp_sw
 .u_boot_list_2_driver_info_3
                0x0000000000034fe8        0x0 drivers/built-in.o
 .u_boot_list_2_env_driver_1
                0x0000000000034fe8        0x0 env/built-in.o
 .u_boot_list_2_env_driver_3
                0x0000000000034fe8        0x0 env/built-in.o
 .u_boot_list_2_fit_loadable_1
                0x0000000000034fe8        0x0 common/built-in.o
 .u_boot_list_2_fit_loadable_3
                0x0000000000034fe8        0x0 common/built-in.o
 .u_boot_list_2_part_driver_1
                0x0000000000034fe8        0x0 disk/built-in.o
 .u_boot_list_2_part_driver_2_a_efi
                0x0000000000034fe8       0x28 disk/built-in.o
                0x0000000000034fe8                _u_boot_list_2_part_driver_2_a_efi
 .u_boot_list_2_part_driver_3
                0x0000000000035010        0x0 disk/built-in.o
 .u_boot_list_2_spl_image_loader_1
                0x0000000000035010        0x0 common/spl/built-in.o
 .u_boot_list_2_spl_image_loader_2_spl_mmc_load_image0BOOT_DEVICE_MMC1
                0x0000000000035010       0x18 common/spl/built-in.o
                0x0000000000035010                _u_boot_list_2_spl_image_loader_2_spl_mmc_load_image0BOOT_DEVICE_MMC1
 .u_boot_list_2_spl_image_loader_2_spl_mmc_load_image0BOOT_DEVICE_MMC2
                0x0000000000035028       0x18 common/spl/built-in.o
                0x0000000000035028                _u_boot_list_2_spl_image_loader_2_spl_mmc_load_image0BOOT_DEVICE_MMC2
 .u_boot_list_2_spl_image_loader_2_spl_mmc_load_image0BOOT_DEVICE_MMC2_2
                0x0000000000035040       0x18 common/spl/built-in.o
                0x0000000000035040                _u_boot_list_2_spl_image_loader_2_spl_mmc_load_image0BOOT_DEVICE_MMC2_2
 .u_boot_list_2_spl_image_loader_2_spl_mtd_load_image0BOOT_DEVICE_MTD_BLK_NAND
                0x0000000000035058       0x18 common/spl/built-in.o
                0x0000000000035058                _u_boot_list_2_spl_image_loader_2_spl_mtd_load_image0BOOT_DEVICE_MTD_BLK_NAND
 .u_boot_list_2_spl_image_loader_2_spl_mtd_load_image0BOOT_DEVICE_MTD_BLK_SPI_NAND
                0x0000000000035070       0x18 common/spl/built-in.o
                0x0000000000035070                _u_boot_list_2_spl_image_loader_2_spl_mtd_load_image0BOOT_DEVICE_MTD_BLK_SPI_NAND
 .u_boot_list_2_spl_image_loader_2_spl_mtd_load_image0BOOT_DEVICE_MTD_BLK_SPI_NOR
                0x0000000000035088       0x18 common/spl/built-in.o
                0x0000000000035088                _u_boot_list_2_spl_image_loader_2_spl_mtd_load_image0BOOT_DEVICE_MTD_BLK_SPI_NOR
 .u_boot_list_2_spl_image_loader_3
                0x00000000000350a0        0x0 common/spl/built-in.o
 .u_boot_list_2_uclass_1
                0x00000000000350a0        0x0 drivers/built-in.o
 .u_boot_list_2_uclass_2_blk
                0x00000000000350a0       0x80 drivers/built-in.o
                0x00000000000350a0                _u_boot_list_2_uclass_2_blk
 .u_boot_list_2_uclass_2_clk
                0x0000000000035120       0x80 drivers/built-in.o
                0x0000000000035120                _u_boot_list_2_uclass_2_clk
 .u_boot_list_2_uclass_2_crypto
                0x00000000000351a0       0x80 drivers/built-in.o
                0x00000000000351a0                _u_boot_list_2_uclass_2_crypto
 .u_boot_list_2_uclass_2_firmware
                0x0000000000035220       0x80 drivers/built-in.o
                0x0000000000035220                _u_boot_list_2_uclass_2_firmware
 .u_boot_list_2_uclass_2_gpio
                0x00000000000352a0       0x80 drivers/built-in.o
                0x00000000000352a0                _u_boot_list_2_uclass_2_gpio
 .u_boot_list_2_uclass_2_misc
                0x0000000000035320       0x80 drivers/built-in.o
                0x0000000000035320                _u_boot_list_2_uclass_2_misc
 .u_boot_list_2_uclass_2_mmc
                0x00000000000353a0       0x80 drivers/built-in.o
                0x00000000000353a0                _u_boot_list_2_uclass_2_mmc
 .u_boot_list_2_uclass_2_mod_exp
                0x0000000000035420       0x80 drivers/built-in.o
                0x0000000000035420                _u_boot_list_2_uclass_2_mod_exp
 .u_boot_list_2_uclass_2_mtd
                0x00000000000354a0       0x80 drivers/built-in.o
                0x00000000000354a0                _u_boot_list_2_uclass_2_mtd
 .u_boot_list_2_uclass_2_nop
                0x0000000000035520       0x80 drivers/built-in.o
                0x0000000000035520                _u_boot_list_2_uclass_2_nop
 .u_boot_list_2_uclass_2_pinconfig
                0x00000000000355a0       0x80 drivers/built-in.o
                0x00000000000355a0                _u_boot_list_2_uclass_2_pinconfig
 .u_boot_list_2_uclass_2_pinctrl
                0x0000000000035620       0x80 drivers/built-in.o
                0x0000000000035620                _u_boot_list_2_uclass_2_pinctrl
 .u_boot_list_2_uclass_2_ram
                0x00000000000356a0       0x80 drivers/built-in.o
                0x00000000000356a0                _u_boot_list_2_uclass_2_ram
 .u_boot_list_2_uclass_2_reset
                0x0000000000035720       0x80 drivers/built-in.o
                0x0000000000035720                _u_boot_list_2_uclass_2_reset
 .u_boot_list_2_uclass_2_root
                0x00000000000357a0       0x80 drivers/built-in.o
                0x00000000000357a0                _u_boot_list_2_uclass_2_root
 .u_boot_list_2_uclass_2_scmi_agent
                0x0000000000035820       0x80 drivers/built-in.o
                0x0000000000035820                _u_boot_list_2_uclass_2_scmi_agent
 .u_boot_list_2_uclass_2_serial
                0x00000000000358a0       0x80 drivers/built-in.o
                0x00000000000358a0                _u_boot_list_2_uclass_2_serial
 .u_boot_list_2_uclass_2_simple_bus
                0x0000000000035920       0x80 drivers/built-in.o
                0x0000000000035920                _u_boot_list_2_uclass_2_simple_bus
 .u_boot_list_2_uclass_2_spi
                0x00000000000359a0       0x80 drivers/built-in.o
                0x00000000000359a0                _u_boot_list_2_uclass_2_spi
 .u_boot_list_2_uclass_2_spi_generic
                0x0000000000035a20       0x80 drivers/built-in.o
                0x0000000000035a20                _u_boot_list_2_uclass_2_spi_generic
 .u_boot_list_2_uclass_2_spi_nor
                0x0000000000035aa0       0x80 drivers/built-in.o
                0x0000000000035aa0                _u_boot_list_2_uclass_2_spi_nor
 .u_boot_list_2_uclass_2_syscon
                0x0000000000035b20       0x80 drivers/built-in.o
                0x0000000000035b20                _u_boot_list_2_uclass_2_syscon
 .u_boot_list_2_uclass_2_sysreset
                0x0000000000035ba0       0x80 drivers/built-in.o
                0x0000000000035ba0                _u_boot_list_2_uclass_2_sysreset
 .u_boot_list_2_uclass_3
                0x0000000000035c20        0x0 drivers/built-in.o

.image_copy_end
                0x0000000000035c20        0x0
                0x0000000000035c20                . = ALIGN (0x8)
 *(.__image_copy_end)
 .__image_copy_end
                0x0000000000035c20        0x0 arch/arm/lib/built-in.o
                0x0000000000035c20                __image_copy_end

.end            0x0000000000035c20        0x0
                0x0000000000035c20                . = ALIGN (0x8)
 *(.__end)
 .__end         0x0000000000035c20        0x0 arch/arm/lib/built-in.o
                0x0000000000035c20                _end
                0x0000000000035c20                _image_binary_end = .

.bss_start      0x0000000003fe0000        0x0
                0x0000000003fe0000                . = ALIGN (0x8)
 *(.__bss_start)
 .__bss_start   0x0000000003fe0000        0x0 arch/arm/lib/built-in.o
                0x0000000003fe0000                __bss_start

.bss            0x0000000003fe0000      0x9f8
 *(.bss*)
 .bss.gpio0a_iomux_sel_h
                0x0000000003fe0000        0x4 arch/arm/mach-rockchip/built-in.o
 .bss.gpio4d_iomux_sel_h
                0x0000000003fe0004        0x4 arch/arm/mach-rockchip/built-in.o
 .bss.bl31_params_mem
                0x0000000003fe0008      0x180 common/spl/built-in.o
 .bss.stdio_devices
                0x0000000003fe0188       0x18 common/built-in.o
                0x0000000003fe0188                stdio_devices
 .bss.gpt_head.6579
                0x0000000003fe01a0        0x8 disk/built-in.o
 .bss.gpt_pte.6578
                0x0000000003fe01a8        0x8 disk/built-in.o
 .bss.name.6523
                0x0000000003fe01b0       0x25 disk/built-in.o
 *fill*         0x0000000003fe01d5        0x3 
 .bss.rockchip_auto_table
                0x0000000003fe01d8       0x40 drivers/built-in.o
 .bss.of_aliases
                0x0000000003fe0218        0x8 drivers/built-in.o
 .bss.crypto_base
                0x0000000003fe0220        0x8 drivers/built-in.o
                0x0000000003fe0220                crypto_base
 .bss.misc_decomp_async
                0x0000000003fe0228        0x4 drivers/built-in.o
 .bss.misc_decomp_sync
                0x0000000003fe022c        0x4 drivers/built-in.o
 .bss.invoke_psci_fn
                0x0000000003fe0230        0x8 drivers/built-in.o
                0x0000000003fe0230                invoke_psci_fn
 .bss.initialized.8119
                0x0000000003fe0238        0x4 drivers/built-in.o
 *fill*         0x0000000003fe023c        0x4 
 .bss.mmc_ext_csd
                0x0000000003fe0240      0x200 drivers/built-in.o
 .bss.aligned_buffer
                0x0000000003fe0440        0x8 drivers/built-in.o
                0x0000000003fe0440                aligned_buffer
 .bss.sf_mtd_info
                0x0000000003fe0448      0x188 drivers/built-in.o
 .bss.sf_mtd_name
                0x0000000003fe05d0        0x8 drivers/built-in.o
 .bss.sf_mtd_registered
                0x0000000003fe05d8        0x1 drivers/built-in.o
 *fill*         0x0000000003fe05d9        0x3 
 .bss.gpio.8050
                0x0000000003fe05dc        0x4 drivers/built-in.o
 .bss.mtd_idr   0x0000000003fe05e0      0x408 drivers/built-in.o
 .bss.mtd_map_blk_table
                0x0000000003fe09e8        0x8 drivers/built-in.o
 .bss.spi_nand_idx
                0x0000000003fe09f0        0x4 drivers/built-in.o
                0x0000000003fe09f8                . = ALIGN (0x8)
 *fill*         0x0000000003fe09f4        0x4 

.bss_end        0x0000000003fe09f8        0x0
 *(.__bss_end)
 .__bss_end     0x0000000003fe09f8        0x0 arch/arm/lib/built-in.o
                0x0000000003fe09f8                __bss_end

/DISCARD/
 *(.dynsym)
 *(.dynstr*)
 *(.dynamic*)
 *(.plt*)
 *(.interp*)
 *(.gnu*)
Address of section .text set to 0x0
LOAD arch/arm/cpu/armv8/start.o
START GROUP
LOAD arch/arm/mach-rockchip/built-in.o
LOAD arch/arm/cpu/armv8/built-in.o
LOAD arch/arm/cpu/built-in.o
LOAD arch/arm/lib/built-in.o
LOAD board/rockchip/evb_rk3588/built-in.o
LOAD common/spl/built-in.o
LOAD common/init/built-in.o
LOAD common/built-in.o
LOAD cmd/built-in.o
LOAD env/built-in.o
LOAD lib/built-in.o
LOAD disk/built-in.o
LOAD drivers/built-in.o
LOAD dts/built-in.o
LOAD fs/built-in.o
END GROUP
LOAD /home/ubuntu/workspace/3588_edge/prebuilts/gcc/linux-x86/aarch64/gcc-linaro-6.3.1-2017.05-x86_64_aarch64-linux-gnu/bin/../lib/gcc/aarch64-linux-gnu/6.3.1/libgcc.a
OUTPUT(u-boot-spl elf64-littleaarch64)

.debug_line     0x0000000000000000    0x2c1ba
 .debug_line    0x0000000000000000       0xb1 arch/arm/cpu/armv8/start.o
 .debug_line    0x00000000000000b1     0x2403 arch/arm/mach-rockchip/built-in.o
 .debug_line    0x00000000000024b4     0x120f arch/arm/cpu/armv8/built-in.o
 .debug_line    0x00000000000036c3     0x144a arch/arm/lib/built-in.o
 .debug_line    0x0000000000004b0d     0x1229 common/spl/built-in.o
 .debug_line    0x0000000000005d36      0x219 common/init/built-in.o
 .debug_line    0x0000000000005f4f     0x49e7 common/built-in.o
 .debug_line    0x000000000000a936      0x58e env/built-in.o
 .debug_line    0x000000000000aec4     0x69f2 lib/built-in.o
 .debug_line    0x00000000000118b6      0xd7d disk/built-in.o
 .debug_line    0x0000000000012633    0x19b87 drivers/built-in.o

.debug_info     0x0000000000000000   0x16b9d3
 .debug_info    0x0000000000000000       0x7b arch/arm/cpu/armv8/start.o
 .debug_info    0x000000000000007b    0x15471 arch/arm/mach-rockchip/built-in.o
 .debug_info    0x00000000000154ec     0x5fce arch/arm/cpu/armv8/built-in.o
 .debug_info    0x000000000001b4ba     0x99a2 arch/arm/lib/built-in.o
 .debug_info    0x0000000000024e5c     0xb0e0 common/spl/built-in.o
 .debug_info    0x000000000002ff3c     0x1191 common/init/built-in.o
 .debug_info    0x00000000000310cd    0x212c7 common/built-in.o
 .debug_info    0x0000000000052394     0x2f3e env/built-in.o
 .debug_info    0x00000000000552d2    0x28efc lib/built-in.o
 .debug_info    0x000000000007e1ce     0x5d94 disk/built-in.o
 .debug_info    0x0000000000083f62    0xe7a71 drivers/built-in.o

.debug_abbrev   0x0000000000000000    0x29af3
 .debug_abbrev  0x0000000000000000       0x14 arch/arm/cpu/armv8/start.o
 .debug_abbrev  0x0000000000000014     0x2afa arch/arm/mach-rockchip/built-in.o
 .debug_abbrev  0x0000000000002b0e      0xefa arch/arm/cpu/armv8/built-in.o
 .debug_abbrev  0x0000000000003a08     0x1798 arch/arm/lib/built-in.o
 .debug_abbrev  0x00000000000051a0     0x1746 common/spl/built-in.o
 .debug_abbrev  0x00000000000068e6      0x2f1 common/init/built-in.o
 .debug_abbrev  0x0000000000006bd7     0x3b1d common/built-in.o
 .debug_abbrev  0x000000000000a6f4      0x755 env/built-in.o
 .debug_abbrev  0x000000000000ae49     0x6265 lib/built-in.o
 .debug_abbrev  0x00000000000110ae      0xb5f disk/built-in.o
 .debug_abbrev  0x0000000000011c0d    0x17ee6 drivers/built-in.o

.debug_aranges  0x0000000000000000     0x8640
 .debug_aranges
                0x0000000000000000       0x30 arch/arm/cpu/armv8/start.o
 .debug_aranges
                0x0000000000000030      0x520 arch/arm/mach-rockchip/built-in.o
 .debug_aranges
                0x0000000000000550      0x480 arch/arm/cpu/armv8/built-in.o
 .debug_aranges
                0x00000000000009d0      0x410 arch/arm/lib/built-in.o
 .debug_aranges
                0x0000000000000de0      0x2e0 common/spl/built-in.o
 .debug_aranges
                0x00000000000010c0       0x60 common/init/built-in.o
 .debug_aranges
                0x0000000000001120     0x1000 common/built-in.o
 .debug_aranges
                0x0000000000002120      0x120 env/built-in.o
 .debug_aranges
                0x0000000000002240     0x1840 lib/built-in.o
 .debug_aranges
                0x0000000000003a80      0x240 disk/built-in.o
 .debug_aranges
                0x0000000000003cc0     0x4980 drivers/built-in.o

.comment        0x0000000000000000       0x2d
 .comment       0x0000000000000000       0x2d arch/arm/mach-rockchip/built-in.o
                                        0x228 (size before relaxing)
 .comment       0x000000000000002d       0xe6 arch/arm/cpu/armv8/built-in.o
 .comment       0x000000000000002d      0x19e arch/arm/lib/built-in.o
 .comment       0x000000000000002d       0xe6 common/spl/built-in.o
 .comment       0x000000000000002d       0x2e common/init/built-in.o
 .comment       0x000000000000002d      0x2b2 common/built-in.o
 .comment       0x000000000000002d       0x5c env/built-in.o
 .comment       0x000000000000002d      0x678 lib/built-in.o
 .comment       0x000000000000002d       0x5c disk/built-in.o
 .comment       0x000000000000002d     0x1140 drivers/built-in.o

.note.GNU-stack
                0x0000000000000000        0x0
 .note.GNU-stack
                0x0000000000000000        0x0 arch/arm/mach-rockchip/built-in.o
 .note.GNU-stack
                0x0000000000000000        0x0 arch/arm/cpu/armv8/built-in.o
 .note.GNU-stack
                0x0000000000000000        0x0 arch/arm/lib/built-in.o
 .note.GNU-stack
                0x0000000000000000        0x0 common/spl/built-in.o
 .note.GNU-stack
                0x0000000000000000        0x0 common/init/built-in.o
 .note.GNU-stack
                0x0000000000000000        0x0 common/built-in.o
 .note.GNU-stack
                0x0000000000000000        0x0 env/built-in.o
 .note.GNU-stack
                0x0000000000000000        0x0 lib/built-in.o
 .note.GNU-stack
                0x0000000000000000        0x0 disk/built-in.o
 .note.GNU-stack
                0x0000000000000000        0x0 drivers/built-in.o

.debug_frame    0x0000000000000000    0x13d58
 .debug_frame   0x0000000000000000      0x9e8 arch/arm/mach-rockchip/built-in.o
 .debug_frame   0x00000000000009e8      0x5d0 arch/arm/cpu/armv8/built-in.o
 .debug_frame   0x0000000000000fb8      0x578 arch/arm/lib/built-in.o
 .debug_frame   0x0000000000001530      0x6a0 common/spl/built-in.o
 .debug_frame   0x0000000000001bd0       0x88 common/init/built-in.o
 .debug_frame   0x0000000000001c58     0x2a40 common/built-in.o
 .debug_frame   0x0000000000004698      0x280 env/built-in.o
 .debug_frame   0x0000000000004918     0x3eb0 lib/built-in.o
 .debug_frame   0x00000000000087c8      0x780 disk/built-in.o
 .debug_frame   0x0000000000008f48     0xae10 drivers/built-in.o

.debug_str      0x0000000000000000    0x192dc
 .debug_str     0x0000000000000000     0x3298 arch/arm/mach-rockchip/built-in.o
                                      0x110ec (size before relaxing)
 .debug_str     0x0000000000003298      0x539 arch/arm/cpu/armv8/built-in.o
                                       0x4724 (size before relaxing)
 .debug_str     0x00000000000037d1     0x134e arch/arm/lib/built-in.o
                                       0x9012 (size before relaxing)
 .debug_str     0x0000000000004b1f      0xfa4 common/spl/built-in.o
                                       0x8d65 (size before relaxing)
 .debug_str     0x0000000000005ac3       0x55 common/init/built-in.o
                                       0x1242 (size before relaxing)
 .debug_str     0x0000000000005b18     0x24f8 common/built-in.o
                                      0x14d48 (size before relaxing)
 .debug_str     0x0000000000008010      0x23e env/built-in.o
                                       0x2808 (size before relaxing)
 .debug_str     0x000000000000824e     0x356a lib/built-in.o
                                      0x18124 (size before relaxing)
 .debug_str     0x000000000000b7b8      0x76f disk/built-in.o
                                       0x32cf (size before relaxing)
 .debug_str     0x000000000000bf27     0xd3b5 drivers/built-in.o
                                      0x9d99f (size before relaxing)

.debug_loc      0x0000000000000000    0xb5f04
 .debug_loc     0x0000000000000000     0x3e5c arch/arm/mach-rockchip/built-in.o
 .debug_loc     0x0000000000003e5c     0x21ec arch/arm/cpu/armv8/built-in.o
 .debug_loc     0x0000000000006048     0x11d4 arch/arm/lib/built-in.o
 .debug_loc     0x000000000000721c     0x31aa common/spl/built-in.o
 .debug_loc     0x000000000000a3c6      0x1cb common/init/built-in.o
 .debug_loc     0x000000000000a591    0x17793 common/built-in.o
 .debug_loc     0x0000000000021d24      0x76a env/built-in.o
 .debug_loc     0x000000000002248e    0x224de lib/built-in.o
 .debug_loc     0x000000000004496c     0x439e disk/built-in.o
 .debug_loc     0x0000000000048d0a    0x6d1fa drivers/built-in.o

.debug_ranges   0x0000000000000000    0x13d60
 .debug_ranges  0x0000000000000000      0x9f0 arch/arm/mach-rockchip/built-in.o
 .debug_ranges  0x00000000000009f0      0x8b0 arch/arm/cpu/armv8/built-in.o
 .debug_ranges  0x00000000000012a0      0x310 arch/arm/lib/built-in.o
 .debug_ranges  0x00000000000015b0      0x710 common/spl/built-in.o
 .debug_ranges  0x0000000000001cc0       0x50 common/init/built-in.o
 .debug_ranges  0x0000000000001d10     0x1c50 common/built-in.o
 .debug_ranges  0x0000000000003960      0x160 env/built-in.o
 .debug_ranges  0x0000000000003ac0     0x2b40 lib/built-in.o
 .debug_ranges  0x0000000000006600      0x760 disk/built-in.o
 .debug_ranges  0x0000000000006d60     0xd000 drivers/built-in.o
